---
triple:          'x86_64-apple-darwin'
binary-path:     '/Users/zhaoyitian/Desktop/datastructure/shujujiegou-shu/chap7-tree/chap7.4.cengcitree/7.4.2.getheight'
relocations:
  - { offsetInCU: 0x546F, offset: 0x546F, size: 0x8, addend: 0x0, symName: __ZNSt3__124__put_character_sequenceB7v160006IcNS_11char_traitsIcEEEERNS_13basic_ostreamIT_T0_EES7_PKS4_m, symObjAddr: 0x8850, symBinAddr: 0x10000AC30, symSize: 0x1F0 }
  - { offsetInCU: 0x8E85, offset: 0x8E85, size: 0x8, addend: 0x0, symName: __ZNSt3__1lsB7v160006INS_11char_traitsIcEEEERNS_13basic_ostreamIcT_EES6_PKc, symObjAddr: 0x570, symBinAddr: 0x100002950, symSize: 0x40 }
  - { offsetInCU: 0x8ECB, offset: 0x8ECB, size: 0x8, addend: 0x0, symName: __ZNSt3__14endlB7v160006IcNS_11char_traitsIcEEEERNS_13basic_ostreamIT_T0_EES7_, symObjAddr: 0x5F0, symBinAddr: 0x1000029D0, symSize: 0x50 }
  - { offsetInCU: 0x8F0B, offset: 0x8F0B, size: 0x8, addend: 0x0, symName: __ZNSt3__1lsB7v160006INS_11char_traitsIcEEEERNS_13basic_ostreamIcT_EES6_c, symObjAddr: 0x690, symBinAddr: 0x100002A70, symSize: 0x30 }
  - { offsetInCU: 0x914B, offset: 0x914B, size: 0x8, addend: 0x0, symName: __ZNSt3__13maxB7v160006ImEERKT_S3_S3_, symObjAddr: 0x2570, symBinAddr: 0x100004950, symSize: 0x30 }
  - { offsetInCU: 0x95E7, offset: 0x95E7, size: 0x8, addend: 0x0, symName: __ZNSt3__14swapB7v160006IPPP6BTNodeEENS_9enable_ifIXaasr21is_move_constructibleIT_EE5valuesr18is_move_assignableIS6_EE5valueEvE4typeERS6_S9_, symObjAddr: 0x2C00, symBinAddr: 0x100004FE0, symSize: 0x40 }
  - { offsetInCU: 0x9638, offset: 0x9638, size: 0x8, addend: 0x0, symName: __ZNSt3__14moveB7v160006IPPP6BTNodeS4_EET0_T_S6_S5_, symObjAddr: 0x2D10, symBinAddr: 0x1000050F0, symSize: 0x40 }
  - { offsetInCU: 0x96AE, offset: 0x96AE, size: 0x8, addend: 0x0, symName: __ZNSt3__112__to_addressB7v160006IPP6BTNodeEEPT_S5_, symObjAddr: 0x2EB0, symBinAddr: 0x100005290, symSize: 0x10 }
  - { offsetInCU: 0x96E3, offset: 0x96E3, size: 0x8, addend: 0x0, symName: __ZNSt3__16__moveB7v160006INS_17_ClassicAlgPolicyEPPP6BTNodeS5_S5_EENS_4pairIT0_T2_EES7_T1_S8_, symObjAddr: 0x2EC0, symBinAddr: 0x1000052A0, symSize: 0x40 }
  - { offsetInCU: 0x974F, offset: 0x974F, size: 0x8, addend: 0x0, symName: __ZNSt3__123__dispatch_copy_or_moveB7v160006INS_17_ClassicAlgPolicyENS_11__move_loopIS1_EENS_14__move_trivialEPPP6BTNodeS8_S8_EENS_4pairIT2_T4_EESA_T3_SB_, symObjAddr: 0x2F00, symBinAddr: 0x1000052E0, symSize: 0x40 }
  - { offsetInCU: 0x97CD, offset: 0x97CD, size: 0x8, addend: 0x0, symName: __ZNSt3__121__unwrap_and_dispatchB7v160006INS_10__overloadINS_11__move_loopINS_17_ClassicAlgPolicyEEENS_14__move_trivialEEEPPP6BTNodeSA_SA_Li0EEENS_4pairIT0_T2_EESC_T1_SD_, symObjAddr: 0x2F40, symBinAddr: 0x100005320, symSize: 0xB0 }
  - { offsetInCU: 0x985C, offset: 0x985C, size: 0x8, addend: 0x0, symName: __ZNSt3__114__unwrap_rangeB7v160006IPPP6BTNodeS4_EENS_4pairIT0_S6_EET_S8_, symObjAddr: 0x2FF0, symBinAddr: 0x1000053D0, symSize: 0x50 }
  - { offsetInCU: 0x9A5C, offset: 0x9A5C, size: 0x8, addend: 0x0, symName: __ZNSt3__113__unwrap_iterB7v160006IPPP6BTNodeNS_18__unwrap_iter_implIS4_Lb1EEELi0EEEDTclsrT0_8__unwrapclsr3stdE7declvalIT_EEEES8_, symObjAddr: 0x3080, symBinAddr: 0x100005460, symSize: 0x20 }
  - { offsetInCU: 0x9AA0, offset: 0x9AA0, size: 0x8, addend: 0x0, symName: __ZNSt3__19make_pairB7v160006IPPP6BTNodeS4_EENS_4pairINS_18__unwrap_ref_decayIT_E4typeENS6_IT0_E4typeEEEOS7_OSA_, symObjAddr: 0x30A0, symBinAddr: 0x100005480, symSize: 0x30 }
  - { offsetInCU: 0x9AEF, offset: 0x9AEF, size: 0x8, addend: 0x0, symName: __ZNSt3__114__rewrap_rangeB7v160006IPPP6BTNodeS4_EET_S5_T0_, symObjAddr: 0x30D0, symBinAddr: 0x1000054B0, symSize: 0x30 }
  - { offsetInCU: 0x9B3B, offset: 0x9B3B, size: 0x8, addend: 0x0, symName: __ZNSt3__113__rewrap_iterB7v160006IPPP6BTNodeS4_NS_18__unwrap_iter_implIS4_Lb1EEEEET_S7_T0_, symObjAddr: 0x3100, symBinAddr: 0x1000054E0, symSize: 0x40 }
  - { offsetInCU: 0x9B90, offset: 0x9B90, size: 0x8, addend: 0x0, symName: __ZNSt3__119__copy_trivial_implB7v160006IPP6BTNodeS3_EENS_4pairIPT_PT0_EES6_S6_S8_, symObjAddr: 0x3140, symBinAddr: 0x100005520, symSize: 0x70 }
  - { offsetInCU: 0x9BF8, offset: 0x9BF8, size: 0x8, addend: 0x0, symName: __ZNSt3__19make_pairB7v160006IRPPP6BTNodeS4_EENS_4pairINS_18__unwrap_ref_decayIT_E4typeENS7_IT0_E4typeEEEOS8_OSB_, symObjAddr: 0x31B0, symBinAddr: 0x100005590, symSize: 0x30 }
  - { offsetInCU: 0x9C9A, offset: 0x9C9A, size: 0x8, addend: 0x0, symName: __ZNSt3__18distanceB7v160006INS_13move_iteratorIPPP6BTNodeEEEENS_15iterator_traitsIT_E15difference_typeES8_S8_, symObjAddr: 0x3310, symBinAddr: 0x1000056F0, symSize: 0x40 }
  - { offsetInCU: 0x9CDD, offset: 0x9CDD, size: 0x8, addend: 0x0, symName: __ZNSt3__110__distanceB7v160006INS_13move_iteratorIPPP6BTNodeEEEENS_15iterator_traitsIT_E15difference_typeES8_S8_NS_26random_access_iterator_tagE, symObjAddr: 0x3430, symBinAddr: 0x100005810, symSize: 0x30 }
  - { offsetInCU: 0x9D2A, offset: 0x9D2A, size: 0x8, addend: 0x0, symName: __ZNSt3__1miB7v160006IPPP6BTNodeS4_EEDTmicldtfp_4baseEcldtfp0_4baseEERKNS_13move_iteratorIT_EERKNS6_IT0_EE, symObjAddr: 0x3460, symBinAddr: 0x100005840, symSize: 0x40 }
  - { offsetInCU: 0x9D79, offset: 0x9D79, size: 0x8, addend: 0x0, symName: __ZNSt3__117__libcpp_allocateB7v160006Emm, symObjAddr: 0x36C0, symBinAddr: 0x100005AA0, symSize: 0x20 }
  - { offsetInCU: 0x9DB6, offset: 0x9DB6, size: 0x8, addend: 0x0, symName: __ZNSt3__121__libcpp_operator_newB7v160006IJmEEEPvDpT_, symObjAddr: 0x3700, symBinAddr: 0x100005AE0, symSize: 0x20 }
  - { offsetInCU: 0x9DEF, offset: 0x9DEF, size: 0x8, addend: 0x0, symName: __ZNSt3__113move_backwardB7v160006IPPP6BTNodeS4_EET0_T_S6_S5_, symObjAddr: 0x3720, symBinAddr: 0x100005B00, symSize: 0x40 }
  - { offsetInCU: 0x9E49, offset: 0x9E49, size: 0x8, addend: 0x0, symName: __ZNSt3__115__move_backwardB7v160006INS_17_ClassicAlgPolicyEPPP6BTNodeS5_S5_EENS_4pairIT0_T2_EES7_T1_S8_, symObjAddr: 0x3760, symBinAddr: 0x100005B40, symSize: 0x40 }
  - { offsetInCU: 0x9EB5, offset: 0x9EB5, size: 0x8, addend: 0x0, symName: __ZNSt3__123__dispatch_copy_or_moveB7v160006INS_17_ClassicAlgPolicyENS_20__move_backward_loopIS1_EENS_23__move_backward_trivialEPPP6BTNodeS8_S8_EENS_4pairIT2_T4_EESA_T3_SB_, symObjAddr: 0x37A0, symBinAddr: 0x100005B80, symSize: 0x40 }
  - { offsetInCU: 0x9F33, offset: 0x9F33, size: 0x8, addend: 0x0, symName: __ZNSt3__121__unwrap_and_dispatchB7v160006INS_10__overloadINS_20__move_backward_loopINS_17_ClassicAlgPolicyEEENS_23__move_backward_trivialEEEPPP6BTNodeSA_SA_Li0EEENS_4pairIT0_T2_EESC_T1_SD_, symObjAddr: 0x37E0, symBinAddr: 0x100005BC0, symSize: 0xB0 }
  - { offsetInCU: 0xA044, offset: 0xA044, size: 0x8, addend: 0x0, symName: __ZNSt3__128__copy_backward_trivial_implB7v160006IPP6BTNodeS3_EENS_4pairIPT_PT0_EES6_S6_S8_, symObjAddr: 0x38D0, symBinAddr: 0x100005CB0, symSize: 0x80 }
  - { offsetInCU: 0xA0AC, offset: 0xA0AC, size: 0x8, addend: 0x0, symName: __ZNSt3__19make_pairB7v160006IRPPP6BTNodeS5_EENS_4pairINS_18__unwrap_ref_decayIT_E4typeENS7_IT0_E4typeEEEOS8_OSB_, symObjAddr: 0x3950, symBinAddr: 0x100005D30, symSize: 0x30 }
  - { offsetInCU: 0xA0FB, offset: 0xA0FB, size: 0x8, addend: 0x0, symName: __ZNSt3__13maxB7v160006ImNS_6__lessImmEEEERKT_S5_S5_T0_, symObjAddr: 0x39E0, symBinAddr: 0x100005DC0, symSize: 0x50 }
  - { offsetInCU: 0xA190, offset: 0xA190, size: 0x8, addend: 0x0, symName: __ZNSt3__119__allocate_at_leastB7v160006INS_9allocatorIPP6BTNodeEEEENS_19__allocation_resultINS_16allocator_traitsIT_E7pointerEEERS8_m, symObjAddr: 0x3B90, symBinAddr: 0x100005F70, symSize: 0x40 }
  - { offsetInCU: 0xA1D3, offset: 0xA1D3, size: 0x8, addend: 0x0, symName: __ZNSt3__119__libcpp_deallocateB7v160006EPvmm, symObjAddr: 0x4000, symBinAddr: 0x1000063E0, symSize: 0x30 }
  - { offsetInCU: 0xA21B, offset: 0xA21B, size: 0x8, addend: 0x0, symName: __ZNSt3__127__do_deallocate_handle_sizeB7v160006IJEEEvPvmDpT_, symObjAddr: 0x4030, symBinAddr: 0x100006410, symSize: 0x20 }
  - { offsetInCU: 0xA259, offset: 0xA259, size: 0x8, addend: 0x0, symName: __ZNSt3__124__libcpp_operator_deleteB7v160006IJPvEEEvDpT_, symObjAddr: 0x4050, symBinAddr: 0x100006430, symSize: 0x20 }
  - { offsetInCU: 0xA28E, offset: 0xA28E, size: 0x8, addend: 0x0, symName: __ZNSt3__112__to_addressB7v160006IP6BTNodeEEPT_S4_, symObjAddr: 0x4470, symBinAddr: 0x100006850, symSize: 0x10 }
  - { offsetInCU: 0xA2C3, offset: 0xA2C3, size: 0x8, addend: 0x0, symName: __ZNSt3__1neB7v160006ERKNS_16__deque_iteratorIP6BTNodePS2_RS2_PS3_lLl512EEES8_, symObjAddr: 0x49F0, symBinAddr: 0x100006DD0, symSize: 0x30 }
  - { offsetInCU: 0xA300, offset: 0xA300, size: 0x8, addend: 0x0, symName: __ZNSt3__1eqB7v160006ERKNS_16__deque_iteratorIP6BTNodePS2_RS2_PS3_lLl512EEES8_, symObjAddr: 0x4A80, symBinAddr: 0x100006E60, symSize: 0x30 }
  - { offsetInCU: 0xA33D, offset: 0xA33D, size: 0x8, addend: 0x0, symName: __ZNSt3__13maxB7v160006IiEERKT_S3_S3_, symObjAddr: 0x4C80, symBinAddr: 0x100007060, symSize: 0x30 }
  - { offsetInCU: 0xA380, offset: 0xA380, size: 0x8, addend: 0x0, symName: __ZNSt3__13maxB7v160006IiNS_6__lessIiiEEEERKT_S5_S5_T0_, symObjAddr: 0x4CB0, symBinAddr: 0x100007090, symSize: 0x50 }
  - { offsetInCU: 0xAA79, offset: 0xAA79, size: 0x8, addend: 0x0, symName: __ZNSt3__14swapB7v160006IPP5QNodeEENS_9enable_ifIXaasr21is_move_constructibleIT_EE5valuesr18is_move_assignableIS5_EE5valueEvE4typeERS5_S8_, symObjAddr: 0x67F0, symBinAddr: 0x100008BD0, symSize: 0x40 }
  - { offsetInCU: 0xAACA, offset: 0xAACA, size: 0x8, addend: 0x0, symName: __ZNSt3__14moveB7v160006IPP5QNodeS3_EET0_T_S5_S4_, symObjAddr: 0x6900, symBinAddr: 0x100008CE0, symSize: 0x40 }
  - { offsetInCU: 0xAB24, offset: 0xAB24, size: 0x8, addend: 0x0, symName: __ZNSt3__112__to_addressB7v160006IP5QNodeEEPT_S4_, symObjAddr: 0x6AA0, symBinAddr: 0x100008E80, symSize: 0x10 }
  - { offsetInCU: 0xAB59, offset: 0xAB59, size: 0x8, addend: 0x0, symName: __ZNSt3__16__moveB7v160006INS_17_ClassicAlgPolicyEPP5QNodeS4_S4_EENS_4pairIT0_T2_EES6_T1_S7_, symObjAddr: 0x6AB0, symBinAddr: 0x100008E90, symSize: 0x40 }
  - { offsetInCU: 0xABC5, offset: 0xABC5, size: 0x8, addend: 0x0, symName: __ZNSt3__123__dispatch_copy_or_moveB7v160006INS_17_ClassicAlgPolicyENS_11__move_loopIS1_EENS_14__move_trivialEPP5QNodeS7_S7_EENS_4pairIT2_T4_EES9_T3_SA_, symObjAddr: 0x6AF0, symBinAddr: 0x100008ED0, symSize: 0x40 }
  - { offsetInCU: 0xAC43, offset: 0xAC43, size: 0x8, addend: 0x0, symName: __ZNSt3__121__unwrap_and_dispatchB7v160006INS_10__overloadINS_11__move_loopINS_17_ClassicAlgPolicyEEENS_14__move_trivialEEEPP5QNodeS9_S9_Li0EEENS_4pairIT0_T2_EESB_T1_SC_, symObjAddr: 0x6B30, symBinAddr: 0x100008F10, symSize: 0xB0 }
  - { offsetInCU: 0xACD2, offset: 0xACD2, size: 0x8, addend: 0x0, symName: __ZNSt3__114__unwrap_rangeB7v160006IPP5QNodeS3_EENS_4pairIT0_S5_EET_S7_, symObjAddr: 0x6BE0, symBinAddr: 0x100008FC0, symSize: 0x50 }
  - { offsetInCU: 0xAE50, offset: 0xAE50, size: 0x8, addend: 0x0, symName: __ZNSt3__113__unwrap_iterB7v160006IPP5QNodeNS_18__unwrap_iter_implIS3_Lb1EEELi0EEEDTclsrT0_8__unwrapclsr3stdE7declvalIT_EEEES7_, symObjAddr: 0x6C70, symBinAddr: 0x100009050, symSize: 0x20 }
  - { offsetInCU: 0xAE94, offset: 0xAE94, size: 0x8, addend: 0x0, symName: __ZNSt3__19make_pairB7v160006IPP5QNodeS3_EENS_4pairINS_18__unwrap_ref_decayIT_E4typeENS5_IT0_E4typeEEEOS6_OS9_, symObjAddr: 0x6C90, symBinAddr: 0x100009070, symSize: 0x30 }
  - { offsetInCU: 0xAEE3, offset: 0xAEE3, size: 0x8, addend: 0x0, symName: __ZNSt3__114__rewrap_rangeB7v160006IPP5QNodeS3_EET_S4_T0_, symObjAddr: 0x6CC0, symBinAddr: 0x1000090A0, symSize: 0x30 }
  - { offsetInCU: 0xAF2F, offset: 0xAF2F, size: 0x8, addend: 0x0, symName: __ZNSt3__113__rewrap_iterB7v160006IPP5QNodeS3_NS_18__unwrap_iter_implIS3_Lb1EEEEET_S6_T0_, symObjAddr: 0x6CF0, symBinAddr: 0x1000090D0, symSize: 0x40 }
  - { offsetInCU: 0xAF84, offset: 0xAF84, size: 0x8, addend: 0x0, symName: __ZNSt3__119__copy_trivial_implB7v160006IP5QNodeS2_EENS_4pairIPT_PT0_EES5_S5_S7_, symObjAddr: 0x6D30, symBinAddr: 0x100009110, symSize: 0x70 }
  - { offsetInCU: 0xAFEC, offset: 0xAFEC, size: 0x8, addend: 0x0, symName: __ZNSt3__19make_pairB7v160006IRPP5QNodeS3_EENS_4pairINS_18__unwrap_ref_decayIT_E4typeENS6_IT0_E4typeEEEOS7_OSA_, symObjAddr: 0x6DA0, symBinAddr: 0x100009180, symSize: 0x30 }
  - { offsetInCU: 0xB08E, offset: 0xB08E, size: 0x8, addend: 0x0, symName: __ZNSt3__18distanceB7v160006INS_13move_iteratorIPP5QNodeEEEENS_15iterator_traitsIT_E15difference_typeES7_S7_, symObjAddr: 0x6F00, symBinAddr: 0x1000092E0, symSize: 0x40 }
  - { offsetInCU: 0xB0D1, offset: 0xB0D1, size: 0x8, addend: 0x0, symName: __ZNSt3__110__distanceB7v160006INS_13move_iteratorIPP5QNodeEEEENS_15iterator_traitsIT_E15difference_typeES7_S7_NS_26random_access_iterator_tagE, symObjAddr: 0x7020, symBinAddr: 0x100009400, symSize: 0x30 }
  - { offsetInCU: 0xB11E, offset: 0xB11E, size: 0x8, addend: 0x0, symName: __ZNSt3__1miB7v160006IPP5QNodeS3_EEDTmicldtfp_4baseEcldtfp0_4baseEERKNS_13move_iteratorIT_EERKNS5_IT0_EE, symObjAddr: 0x7050, symBinAddr: 0x100009430, symSize: 0x40 }
  - { offsetInCU: 0xB16D, offset: 0xB16D, size: 0x8, addend: 0x0, symName: __ZNSt3__113move_backwardB7v160006IPP5QNodeS3_EET0_T_S5_S4_, symObjAddr: 0x7290, symBinAddr: 0x100009670, symSize: 0x40 }
  - { offsetInCU: 0xB1C7, offset: 0xB1C7, size: 0x8, addend: 0x0, symName: __ZNSt3__115__move_backwardB7v160006INS_17_ClassicAlgPolicyEPP5QNodeS4_S4_EENS_4pairIT0_T2_EES6_T1_S7_, symObjAddr: 0x72D0, symBinAddr: 0x1000096B0, symSize: 0x40 }
  - { offsetInCU: 0xB233, offset: 0xB233, size: 0x8, addend: 0x0, symName: __ZNSt3__123__dispatch_copy_or_moveB7v160006INS_17_ClassicAlgPolicyENS_20__move_backward_loopIS1_EENS_23__move_backward_trivialEPP5QNodeS7_S7_EENS_4pairIT2_T4_EES9_T3_SA_, symObjAddr: 0x7310, symBinAddr: 0x1000096F0, symSize: 0x40 }
  - { offsetInCU: 0xB2B1, offset: 0xB2B1, size: 0x8, addend: 0x0, symName: __ZNSt3__121__unwrap_and_dispatchB7v160006INS_10__overloadINS_20__move_backward_loopINS_17_ClassicAlgPolicyEEENS_23__move_backward_trivialEEEPP5QNodeS9_S9_Li0EEENS_4pairIT0_T2_EESB_T1_SC_, symObjAddr: 0x7350, symBinAddr: 0x100009730, symSize: 0xB0 }
  - { offsetInCU: 0xB340, offset: 0xB340, size: 0x8, addend: 0x0, symName: __ZNSt3__128__copy_backward_trivial_implB7v160006IP5QNodeS2_EENS_4pairIPT_PT0_EES5_S5_S7_, symObjAddr: 0x7440, symBinAddr: 0x100009820, symSize: 0x80 }
  - { offsetInCU: 0xB3A8, offset: 0xB3A8, size: 0x8, addend: 0x0, symName: __ZNSt3__19make_pairB7v160006IRPP5QNodeS4_EENS_4pairINS_18__unwrap_ref_decayIT_E4typeENS6_IT0_E4typeEEEOS7_OSA_, symObjAddr: 0x74C0, symBinAddr: 0x1000098A0, symSize: 0x30 }
  - { offsetInCU: 0xB3F7, offset: 0xB3F7, size: 0x8, addend: 0x0, symName: __ZNSt3__119__allocate_at_leastB7v160006INS_9allocatorIP5QNodeEEEENS_19__allocation_resultINS_16allocator_traitsIT_E7pointerEEERS7_m, symObjAddr: 0x7680, symBinAddr: 0x100009A60, symSize: 0x40 }
  - { offsetInCU: 0xB43A, offset: 0xB43A, size: 0x8, addend: 0x0, symName: __ZNSt3__112__to_addressB7v160006I5QNodeEEPT_S3_, symObjAddr: 0x7FA0, symBinAddr: 0x10000A380, symSize: 0x10 }
  - { offsetInCU: 0xB46F, offset: 0xB46F, size: 0x8, addend: 0x0, symName: __ZNSt3__1neB7v160006ERKNS_16__deque_iteratorI5QNodePS1_RS1_PS2_lLl256EEES7_, symObjAddr: 0x8370, symBinAddr: 0x10000A750, symSize: 0x30 }
  - { offsetInCU: 0xB4AC, offset: 0xB4AC, size: 0x8, addend: 0x0, symName: __ZNSt3__1eqB7v160006ERKNS_16__deque_iteratorI5QNodePS1_RS1_PS2_lLl256EEES7_, symObjAddr: 0x8400, symBinAddr: 0x10000A7E0, symSize: 0x30 }
  - { offsetInCU: 0xB6F4, offset: 0xB6F4, size: 0x8, addend: 0x0, symName: __ZNSt3__116__pad_and_outputB7v160006IcNS_11char_traitsIcEEEENS_19ostreambuf_iteratorIT_T0_EES6_PKS4_S8_S8_RNS_8ios_baseES4_, symObjAddr: 0x8A60, symBinAddr: 0x10000AE40, symSize: 0x220 }
  - { offsetInCU: 0xB7C4, offset: 0xB7C4, size: 0x8, addend: 0x0, symName: __ZNSt3__119__debug_db_insert_cB7v160006INS_12basic_stringIcNS_11char_traitsIcEENS_9allocatorIcEEEEEEvPT_, symObjAddr: 0x8EF0, symBinAddr: 0x10000B2D0, symSize: 0x10 }
  - { offsetInCU: 0xB7F5, offset: 0xB7F5, size: 0x8, addend: 0x0, symName: __ZNSt3__112__to_addressB7v160006IKcEEPT_S3_, symObjAddr: 0x8F90, symBinAddr: 0x10000B370, symSize: 0x10 }
  - { offsetInCU: 0xB85D, offset: 0xB85D, size: 0x8, addend: 0x0, symName: __ZNSt3__19use_facetB7v160006INS_5ctypeIcEEEERKT_RKNS_6localeE, symObjAddr: 0x9190, symBinAddr: 0x10000B570, symSize: 0x30 }
  - { offsetInCU: 0xBD2C, offset: 0xBD2C, size: 0x8, addend: 0x0, symName: __ZNSt3__118__constexpr_strlenB7v160006EPKc, symObjAddr: 0x9250, symBinAddr: 0x10000B630, symSize: 0x20 }
  - { offsetInCU: 0xBF65, offset: 0xBF65, size: 0x8, addend: 0x0, symName: __ZSt28__throw_bad_array_new_lengthB7v160006v, symObjAddr: 0x3680, symBinAddr: 0x100005A60, symSize: 0x40 }
  - { offsetInCU: 0xE99B, offset: 0xE99B, size: 0x8, addend: 0x0, symName: __Z3SumP6BTNode, symObjAddr: 0x0, symBinAddr: 0x1000023E0, symSize: 0x70 }
  - { offsetInCU: 0xE9C7, offset: 0xE9C7, size: 0x8, addend: 0x0, symName: __Z4testv, symObjAddr: 0x70, symBinAddr: 0x100002450, symSize: 0x250 }
  - { offsetInCU: 0xEA15, offset: 0xEA15, size: 0x8, addend: 0x0, symName: __ZNSt3__112basic_stringIcNS_11char_traitsIcEENS_9allocatorIcEEEC1B7v160006IDnEEPKc, symObjAddr: 0x2C0, symBinAddr: 0x1000026A0, symSize: 0x30 }
  - { offsetInCU: 0xEB4E, offset: 0xEB4E, size: 0x8, addend: 0x0, symName: __ZN5BTreeC1Ev, symObjAddr: 0x2F0, symBinAddr: 0x1000026D0, symSize: 0x20 }
  - { offsetInCU: 0xEB78, offset: 0xEB78, size: 0x8, addend: 0x0, symName: __ZN5BTree11CreateBTreeENSt3__112basic_stringIcNS0_11char_traitsIcEENS0_9allocatorIcEEEE, symObjAddr: 0x310, symBinAddr: 0x1000026F0, symSize: 0x260 }
  - { offsetInCU: 0xEBE8, offset: 0xEBE8, size: 0x8, addend: 0x0, symName: __ZN5BTree9DispBTreeEv, symObjAddr: 0x5B0, symBinAddr: 0x100002990, symSize: 0x20 }
  - { offsetInCU: 0xEC0E, offset: 0xEC0E, size: 0x8, addend: 0x0, symName: __ZNSt3__113basic_ostreamIcNS_11char_traitsIcEEElsB7v160006EPFRS3_S4_E, symObjAddr: 0x5D0, symBinAddr: 0x1000029B0, symSize: 0x20 }
  - { offsetInCU: 0xEC42, offset: 0xEC42, size: 0x8, addend: 0x0, symName: __ZN5BTree6HeightEv, symObjAddr: 0x640, symBinAddr: 0x100002A20, symSize: 0x20 }
  - { offsetInCU: 0xEC68, offset: 0xEC68, size: 0x8, addend: 0x0, symName: __ZN5BTree8FindNodeEc, symObjAddr: 0x660, symBinAddr: 0x100002A40, symSize: 0x30 }
  - { offsetInCU: 0xEC9C, offset: 0xEC9C, size: 0x8, addend: 0x0, symName: __ZN5BTreeD1Ev, symObjAddr: 0x6C0, symBinAddr: 0x100002AA0, symSize: 0x20 }
  - { offsetInCU: 0xECC6, offset: 0xECC6, size: 0x8, addend: 0x0, symName: _main, symObjAddr: 0x6E0, symBinAddr: 0x100002AC0, symSize: 0x3B0 }
  - { offsetInCU: 0xEDD9, offset: 0xEDD9, size: 0x8, addend: 0x0, symName: __ZN8Solution7KCount1ER5BTreei, symObjAddr: 0xA90, symBinAddr: 0x100002E70, symSize: 0x1D0 }
  - { offsetInCU: 0xEE4D, offset: 0xEE4D, size: 0x8, addend: 0x0, symName: __ZN8Solution7KCount2ER5BTreei, symObjAddr: 0xC60, symBinAddr: 0x100003040, symSize: 0x1C0 }
  - { offsetInCU: 0xEEE8, offset: 0xEEE8, size: 0x8, addend: 0x0, symName: __ZN8Solution7KCount3ER5BTreei, symObjAddr: 0xE20, symBinAddr: 0x100003200, symSize: 0x1C0 }
  - { offsetInCU: 0xEF99, offset: 0xEF99, size: 0x8, addend: 0x0, symName: __ZN5BTreeC2Ev, symObjAddr: 0xFE0, symBinAddr: 0x1000033C0, symSize: 0x20 }
  - { offsetInCU: 0xEFFF, offset: 0xEFFF, size: 0x8, addend: 0x0, symName: __ZNSt3__15stackIP6BTNodeNS_5dequeIS2_NS_9allocatorIS2_EEEEEC1B7v160006Ev, symObjAddr: 0x1000, symBinAddr: 0x1000033E0, symSize: 0x20 }
  - { offsetInCU: 0xF029, offset: 0xF029, size: 0x8, addend: 0x0, symName: __ZNKSt3__112basic_stringIcNS_11char_traitsIcEENS_9allocatorIcEEE6lengthB7v160006Ev, symObjAddr: 0x1020, symBinAddr: 0x100003400, symSize: 0x20 }
  - { offsetInCU: 0xF04F, offset: 0xF04F, size: 0x8, addend: 0x0, symName: __ZNSt3__112basic_stringIcNS_11char_traitsIcEENS_9allocatorIcEEEixB7v160006Em, symObjAddr: 0x1040, symBinAddr: 0x100003420, symSize: 0x30 }
  - { offsetInCU: 0xF084, offset: 0xF084, size: 0x8, addend: 0x0, symName: __ZNSt3__15stackIP6BTNodeNS_5dequeIS2_NS_9allocatorIS2_EEEEE4pushB7v160006ERKS2_, symObjAddr: 0x1070, symBinAddr: 0x100003450, symSize: 0x30 }
  - { offsetInCU: 0xF0B8, offset: 0xF0B8, size: 0x8, addend: 0x0, symName: __ZNSt3__15stackIP6BTNodeNS_5dequeIS2_NS_9allocatorIS2_EEEEE3popB7v160006Ev, symObjAddr: 0x10A0, symBinAddr: 0x100003480, symSize: 0x20 }
  - { offsetInCU: 0xF0DE, offset: 0xF0DE, size: 0x8, addend: 0x0, symName: __ZN6BTNodeC1Ec, symObjAddr: 0x10C0, symBinAddr: 0x1000034A0, symSize: 0x30 }
  - { offsetInCU: 0xF116, offset: 0xF116, size: 0x8, addend: 0x0, symName: __ZNKSt3__15stackIP6BTNodeNS_5dequeIS2_NS_9allocatorIS2_EEEEE5emptyB7v160006Ev, symObjAddr: 0x10F0, symBinAddr: 0x1000034D0, symSize: 0x20 }
  - { offsetInCU: 0xF13C, offset: 0xF13C, size: 0x8, addend: 0x0, symName: __ZNSt3__15stackIP6BTNodeNS_5dequeIS2_NS_9allocatorIS2_EEEEE3topB7v160006Ev, symObjAddr: 0x1110, symBinAddr: 0x1000034F0, symSize: 0x20 }
  - { offsetInCU: 0xF162, offset: 0xF162, size: 0x8, addend: 0x0, symName: __ZNSt3__15stackIP6BTNodeNS_5dequeIS2_NS_9allocatorIS2_EEEEED1Ev, symObjAddr: 0x1130, symBinAddr: 0x100003510, symSize: 0x20 }
  - { offsetInCU: 0xF18E, offset: 0xF18E, size: 0x8, addend: 0x0, symName: __ZNSt3__15stackIP6BTNodeNS_5dequeIS2_NS_9allocatorIS2_EEEEEC2B7v160006Ev, symObjAddr: 0x1150, symBinAddr: 0x100003530, symSize: 0x20 }
  - { offsetInCU: 0xF1B8, offset: 0xF1B8, size: 0x8, addend: 0x0, symName: __ZNSt3__15dequeIP6BTNodeNS_9allocatorIS2_EEEC1B7v160006Ev, symObjAddr: 0x1170, symBinAddr: 0x100003550, symSize: 0x20 }
  - { offsetInCU: 0xF1E2, offset: 0xF1E2, size: 0x8, addend: 0x0, symName: __ZNSt3__15dequeIP6BTNodeNS_9allocatorIS2_EEEC2B7v160006Ev, symObjAddr: 0x1190, symBinAddr: 0x100003570, symSize: 0x50 }
  - { offsetInCU: 0xF20C, offset: 0xF20C, size: 0x8, addend: 0x0, symName: __ZNSt3__114__split_bufferIPP6BTNodeNS_9allocatorIS3_EEEC1Ev, symObjAddr: 0x11E0, symBinAddr: 0x1000035C0, symSize: 0x20 }
  - { offsetInCU: 0xF242, offset: 0xF242, size: 0x8, addend: 0x0, symName: __ZNSt3__117__compressed_pairImNS_9allocatorIP6BTNodeEEEC1B7v160006IiNS_18__default_init_tagEEEOT_OT0_, symObjAddr: 0x1200, symBinAddr: 0x1000035E0, symSize: 0x30 }
  - { offsetInCU: 0xF29A, offset: 0xF29A, size: 0x8, addend: 0x0, symName: __ZNSt3__114__split_bufferIPP6BTNodeNS_9allocatorIS3_EEEC2Ev, symObjAddr: 0x1240, symBinAddr: 0x100003620, symSize: 0x60 }
  - { offsetInCU: 0xF2CB, offset: 0xF2CB, size: 0x8, addend: 0x0, symName: __ZNSt3__117__compressed_pairIPPP6BTNodeNS_9allocatorIS3_EEEC1B7v160006IDnNS_18__default_init_tagEEEOT_OT0_, symObjAddr: 0x12A0, symBinAddr: 0x100003680, symSize: 0x30 }
  - { offsetInCU: 0xF323, offset: 0xF323, size: 0x8, addend: 0x0, symName: __ZNSt3__117__compressed_pairIPPP6BTNodeNS_9allocatorIS3_EEEC2B7v160006IDnNS_18__default_init_tagEEEOT_OT0_, symObjAddr: 0x12D0, symBinAddr: 0x1000036B0, symSize: 0x40 }
  - { offsetInCU: 0xF37B, offset: 0xF37B, size: 0x8, addend: 0x0, symName: __ZNSt3__122__compressed_pair_elemIPPP6BTNodeLi0ELb0EEC2B7v160006IDnvEEOT_, symObjAddr: 0x1310, symBinAddr: 0x1000036F0, symSize: 0x20 }
  - { offsetInCU: 0xF3BD, offset: 0xF3BD, size: 0x8, addend: 0x0, symName: __ZNSt3__122__compressed_pair_elemINS_9allocatorIPP6BTNodeEELi1ELb1EEC2B7v160006ENS_18__default_init_tagE, symObjAddr: 0x1330, symBinAddr: 0x100003710, symSize: 0x20 }
  - { offsetInCU: 0xF3F1, offset: 0xF3F1, size: 0x8, addend: 0x0, symName: __ZNSt3__19allocatorIPP6BTNodeEC2B7v160006Ev, symObjAddr: 0x1350, symBinAddr: 0x100003730, symSize: 0x20 }
  - { offsetInCU: 0xF41B, offset: 0xF41B, size: 0x8, addend: 0x0, symName: __ZNSt3__116__non_trivial_ifILb1ENS_9allocatorIPP6BTNodeEEEC2B7v160006Ev, symObjAddr: 0x1370, symBinAddr: 0x100003750, symSize: 0x10 }
  - { offsetInCU: 0xF445, offset: 0xF445, size: 0x8, addend: 0x0, symName: __ZNSt3__117__compressed_pairImNS_9allocatorIP6BTNodeEEEC2B7v160006IiNS_18__default_init_tagEEEOT_OT0_, symObjAddr: 0x1380, symBinAddr: 0x100003760, symSize: 0x40 }
  - { offsetInCU: 0xF49D, offset: 0xF49D, size: 0x8, addend: 0x0, symName: __ZNSt3__122__compressed_pair_elemImLi0ELb0EEC2B7v160006IivEEOT_, symObjAddr: 0x13C0, symBinAddr: 0x1000037A0, symSize: 0x20 }
  - { offsetInCU: 0xF4DF, offset: 0xF4DF, size: 0x8, addend: 0x0, symName: __ZNSt3__122__compressed_pair_elemINS_9allocatorIP6BTNodeEELi1ELb1EEC2B7v160006ENS_18__default_init_tagE, symObjAddr: 0x13E0, symBinAddr: 0x1000037C0, symSize: 0x20 }
  - { offsetInCU: 0xF513, offset: 0xF513, size: 0x8, addend: 0x0, symName: __ZNSt3__19allocatorIP6BTNodeEC2B7v160006Ev, symObjAddr: 0x1400, symBinAddr: 0x1000037E0, symSize: 0x20 }
  - { offsetInCU: 0xF53D, offset: 0xF53D, size: 0x8, addend: 0x0, symName: __ZNSt3__116__non_trivial_ifILb1ENS_9allocatorIP6BTNodeEEEC2B7v160006Ev, symObjAddr: 0x1420, symBinAddr: 0x100003800, symSize: 0x10 }
  - { offsetInCU: 0xF567, offset: 0xF567, size: 0x8, addend: 0x0, symName: __ZNKSt3__112basic_stringIcNS_11char_traitsIcEENS_9allocatorIcEEE4sizeB7v160006Ev, symObjAddr: 0x1430, symBinAddr: 0x100003810, symSize: 0x50 }
  - { offsetInCU: 0xF58D, offset: 0xF58D, size: 0x8, addend: 0x0, symName: __ZNKSt3__112basic_stringIcNS_11char_traitsIcEENS_9allocatorIcEEE9__is_longB7v160006Ev, symObjAddr: 0x1480, symBinAddr: 0x100003860, symSize: 0x30 }
  - { offsetInCU: 0xF5B3, offset: 0xF5B3, size: 0x8, addend: 0x0, symName: __ZNKSt3__112basic_stringIcNS_11char_traitsIcEENS_9allocatorIcEEE15__get_long_sizeB7v160006Ev, symObjAddr: 0x14B0, symBinAddr: 0x100003890, symSize: 0x20 }
  - { offsetInCU: 0xF5D9, offset: 0xF5D9, size: 0x8, addend: 0x0, symName: __ZNKSt3__112basic_stringIcNS_11char_traitsIcEENS_9allocatorIcEEE16__get_short_sizeB7v160006Ev, symObjAddr: 0x14D0, symBinAddr: 0x1000038B0, symSize: 0x30 }
  - { offsetInCU: 0xF5FF, offset: 0xF5FF, size: 0x8, addend: 0x0, symName: __ZNKSt3__117__compressed_pairINS_12basic_stringIcNS_11char_traitsIcEENS_9allocatorIcEEE5__repES5_E5firstB7v160006Ev, symObjAddr: 0x1500, symBinAddr: 0x1000038E0, symSize: 0x20 }
  - { offsetInCU: 0xF625, offset: 0xF625, size: 0x8, addend: 0x0, symName: __ZNKSt3__122__compressed_pair_elemINS_12basic_stringIcNS_11char_traitsIcEENS_9allocatorIcEEE5__repELi0ELb0EE5__getB7v160006Ev, symObjAddr: 0x1520, symBinAddr: 0x100003900, symSize: 0x10 }
  - { offsetInCU: 0xF64B, offset: 0xF64B, size: 0x8, addend: 0x0, symName: __ZNSt3__112basic_stringIcNS_11char_traitsIcEENS_9allocatorIcEEE13__get_pointerB7v160006Ev, symObjAddr: 0x1530, symBinAddr: 0x100003910, symSize: 0x50 }
  - { offsetInCU: 0xF671, offset: 0xF671, size: 0x8, addend: 0x0, symName: __ZNSt3__112basic_stringIcNS_11char_traitsIcEENS_9allocatorIcEEE18__get_long_pointerB7v160006Ev, symObjAddr: 0x1580, symBinAddr: 0x100003960, symSize: 0x20 }
  - { offsetInCU: 0xF697, offset: 0xF697, size: 0x8, addend: 0x0, symName: __ZNSt3__112basic_stringIcNS_11char_traitsIcEENS_9allocatorIcEEE19__get_short_pointerB7v160006Ev, symObjAddr: 0x15A0, symBinAddr: 0x100003980, symSize: 0x30 }
  - { offsetInCU: 0xF6BD, offset: 0xF6BD, size: 0x8, addend: 0x0, symName: __ZNSt3__117__compressed_pairINS_12basic_stringIcNS_11char_traitsIcEENS_9allocatorIcEEE5__repES5_E5firstB7v160006Ev, symObjAddr: 0x15D0, symBinAddr: 0x1000039B0, symSize: 0x20 }
  - { offsetInCU: 0xF6E3, offset: 0xF6E3, size: 0x8, addend: 0x0, symName: __ZNSt3__122__compressed_pair_elemINS_12basic_stringIcNS_11char_traitsIcEENS_9allocatorIcEEE5__repELi0ELb0EE5__getB7v160006Ev, symObjAddr: 0x15F0, symBinAddr: 0x1000039D0, symSize: 0x10 }
  - { offsetInCU: 0xF709, offset: 0xF709, size: 0x8, addend: 0x0, symName: __ZNSt3__114pointer_traitsIPcE10pointer_toB7v160006ERc, symObjAddr: 0x1600, symBinAddr: 0x1000039E0, symSize: 0x10 }
  - { offsetInCU: 0xF72C, offset: 0xF72C, size: 0x8, addend: 0x0, symName: __ZNSt3__15dequeIP6BTNodeNS_9allocatorIS2_EEE9push_backERKS2_, symObjAddr: 0x1610, symBinAddr: 0x1000039F0, symSize: 0x90 }
  - { offsetInCU: 0xF772, offset: 0xF772, size: 0x8, addend: 0x0, symName: __ZNSt3__15dequeIP6BTNodeNS_9allocatorIS2_EEE7__allocB7v160006Ev, symObjAddr: 0x16A0, symBinAddr: 0x100003A80, symSize: 0x20 }
  - { offsetInCU: 0xF798, offset: 0xF798, size: 0x8, addend: 0x0, symName: __ZNKSt3__15dequeIP6BTNodeNS_9allocatorIS2_EEE12__back_spareB7v160006Ev, symObjAddr: 0x16C0, symBinAddr: 0x100003AA0, symSize: 0x50 }
  - { offsetInCU: 0xF7BE, offset: 0xF7BE, size: 0x8, addend: 0x0, symName: __ZNSt3__15dequeIP6BTNodeNS_9allocatorIS2_EEE19__add_back_capacityEv, symObjAddr: 0x1710, symBinAddr: 0x100003AF0, symSize: 0x380 }
  - { offsetInCU: 0xF876, offset: 0xF876, size: 0x8, addend: 0x0, symName: __ZNSt3__116allocator_traitsINS_9allocatorIP6BTNodeEEE9constructB7v160006IS3_JRKS3_EvEEvRS4_PT_DpOT0_, symObjAddr: 0x1A90, symBinAddr: 0x100003E70, symSize: 0x30 }
  - { offsetInCU: 0xF8CD, offset: 0xF8CD, size: 0x8, addend: 0x0, symName: __ZNSt3__15dequeIP6BTNodeNS_9allocatorIS2_EEE3endB7v160006Ev, symObjAddr: 0x1AC0, symBinAddr: 0x100003EA0, symSize: 0xC0 }
  - { offsetInCU: 0xF911, offset: 0xF911, size: 0x8, addend: 0x0, symName: __ZNKSt3__116__deque_iteratorIP6BTNodePS2_RS2_PS3_lLl512EEdeB7v160006Ev, symObjAddr: 0x1B80, symBinAddr: 0x100003F60, symSize: 0x20 }
  - { offsetInCU: 0xF937, offset: 0xF937, size: 0x8, addend: 0x0, symName: __ZNSt3__15dequeIP6BTNodeNS_9allocatorIS2_EEE6__sizeB7v160006Ev, symObjAddr: 0x1BA0, symBinAddr: 0x100003F80, symSize: 0x20 }
  - { offsetInCU: 0xF95D, offset: 0xF95D, size: 0x8, addend: 0x0, symName: __ZNSt3__117__compressed_pairImNS_9allocatorIP6BTNodeEEE6secondB7v160006Ev, symObjAddr: 0x1BC0, symBinAddr: 0x100003FA0, symSize: 0x20 }
  - { offsetInCU: 0xF983, offset: 0xF983, size: 0x8, addend: 0x0, symName: __ZNSt3__122__compressed_pair_elemINS_9allocatorIP6BTNodeEELi1ELb1EE5__getB7v160006Ev, symObjAddr: 0x1BE0, symBinAddr: 0x100003FC0, symSize: 0x10 }
  - { offsetInCU: 0xF9A9, offset: 0xF9A9, size: 0x8, addend: 0x0, symName: __ZNKSt3__15dequeIP6BTNodeNS_9allocatorIS2_EEE10__capacityB7v160006Ev, symObjAddr: 0x1BF0, symBinAddr: 0x100003FD0, symSize: 0x50 }
  - { offsetInCU: 0xF9CF, offset: 0xF9CF, size: 0x8, addend: 0x0, symName: __ZNKSt3__15dequeIP6BTNodeNS_9allocatorIS2_EEE4sizeB7v160006Ev, symObjAddr: 0x1C40, symBinAddr: 0x100004020, symSize: 0x20 }
  - { offsetInCU: 0xF9F5, offset: 0xF9F5, size: 0x8, addend: 0x0, symName: __ZNKSt3__114__split_bufferIPP6BTNodeNS_9allocatorIS3_EEE4sizeB7v160006Ev, symObjAddr: 0x1C60, symBinAddr: 0x100004040, symSize: 0x20 }
  - { offsetInCU: 0xFA1B, offset: 0xFA1B, size: 0x8, addend: 0x0, symName: __ZNKSt3__15dequeIP6BTNodeNS_9allocatorIS2_EEE6__sizeB7v160006Ev, symObjAddr: 0x1C80, symBinAddr: 0x100004060, symSize: 0x20 }
  - { offsetInCU: 0xFA41, offset: 0xFA41, size: 0x8, addend: 0x0, symName: __ZNKSt3__117__compressed_pairImNS_9allocatorIP6BTNodeEEE5firstB7v160006Ev, symObjAddr: 0x1CA0, symBinAddr: 0x100004080, symSize: 0x20 }
  - { offsetInCU: 0xFA67, offset: 0xFA67, size: 0x8, addend: 0x0, symName: __ZNKSt3__122__compressed_pair_elemImLi0ELb0EE5__getB7v160006Ev, symObjAddr: 0x1CC0, symBinAddr: 0x1000040A0, symSize: 0x10 }
  - { offsetInCU: 0xFA8D, offset: 0xFA8D, size: 0x8, addend: 0x0, symName: __ZNKSt3__15dequeIP6BTNodeNS_9allocatorIS2_EEE13__front_spareB7v160006Ev, symObjAddr: 0x1CD0, symBinAddr: 0x1000040B0, symSize: 0x20 }
  - { offsetInCU: 0xFAB3, offset: 0xFAB3, size: 0x8, addend: 0x0, symName: __ZNSt3__114__split_bufferIPP6BTNodeNS_9allocatorIS3_EEE5frontB7v160006Ev, symObjAddr: 0x1CF0, symBinAddr: 0x1000040D0, symSize: 0x20 }
  - { offsetInCU: 0xFAD9, offset: 0xFAD9, size: 0x8, addend: 0x0, symName: __ZNSt3__114__split_bufferIPP6BTNodeNS_9allocatorIS3_EEE9pop_frontB7v160006Ev, symObjAddr: 0x1D10, symBinAddr: 0x1000040F0, symSize: 0x30 }
  - { offsetInCU: 0xFAFF, offset: 0xFAFF, size: 0x8, addend: 0x0, symName: __ZNSt3__114__split_bufferIPP6BTNodeNS_9allocatorIS3_EEE9push_backB7v160006ERKS3_, symObjAddr: 0x1D40, symBinAddr: 0x100004120, symSize: 0x290 }
  - { offsetInCU: 0xFB78, offset: 0xFB78, size: 0x8, addend: 0x0, symName: __ZNKSt3__114__split_bufferIPP6BTNodeNS_9allocatorIS3_EEE8capacityB7v160006Ev, symObjAddr: 0x1FD0, symBinAddr: 0x1000043B0, symSize: 0x30 }
  - { offsetInCU: 0xFB9E, offset: 0xFB9E, size: 0x8, addend: 0x0, symName: __ZNKSt3__114__split_bufferIPP6BTNodeNS_9allocatorIS3_EEE12__back_spareB7v160006Ev, symObjAddr: 0x2000, symBinAddr: 0x1000043E0, symSize: 0x40 }
  - { offsetInCU: 0xFBC4, offset: 0xFBC4, size: 0x8, addend: 0x0, symName: __ZNSt3__114__split_bufferIPP6BTNodeNS_9allocatorIS3_EEE9push_backEOS3_, symObjAddr: 0x2040, symBinAddr: 0x100004420, symSize: 0x290 }
  - { offsetInCU: 0xFC3D, offset: 0xFC3D, size: 0x8, addend: 0x0, symName: __ZNSt3__116allocator_traitsINS_9allocatorIP6BTNodeEEE8allocateB7v160006ERS4_m, symObjAddr: 0x22D0, symBinAddr: 0x1000046B0, symSize: 0x30 }
  - { offsetInCU: 0xFC70, offset: 0xFC70, size: 0x8, addend: 0x0, symName: __ZNSt3__114__split_bufferIPP6BTNodeNS_9allocatorIS3_EEE10push_frontEOS3_, symObjAddr: 0x2300, symBinAddr: 0x1000046E0, symSize: 0x270 }
  - { offsetInCU: 0xFCE9, offset: 0xFCE9, size: 0x8, addend: 0x0, symName: __ZNSt3__114__split_bufferIPP6BTNodeNS_9allocatorIS3_EEE7__allocB7v160006Ev, symObjAddr: 0x25A0, symBinAddr: 0x100004980, symSize: 0x20 }
  - { offsetInCU: 0xFD0F, offset: 0xFD0F, size: 0x8, addend: 0x0, symName: __ZNSt3__114__split_bufferIPP6BTNodeRNS_9allocatorIS3_EEEC1EmmS6_, symObjAddr: 0x25C0, symBinAddr: 0x1000049A0, symSize: 0x40 }
  - { offsetInCU: 0xFD6A, offset: 0xFD6A, size: 0x8, addend: 0x0, symName: __ZNSt3__122__allocator_destructorINS_9allocatorIP6BTNodeEEEC1B7v160006ERS4_m, symObjAddr: 0x2600, symBinAddr: 0x1000049E0, symSize: 0x30 }
  - { offsetInCU: 0xFE2D, offset: 0xFE2D, size: 0x8, addend: 0x0, symName: __ZNSt3__110unique_ptrIPP6BTNodeNS_22__allocator_destructorINS_9allocatorIS2_EEEEEC1B7v160006ILb1EvEES3_NS_16__dependent_typeINS_27__unique_ptr_deleter_sfinaeIS7_EEXT_EE20__good_rval_ref_typeE, symObjAddr: 0x2630, symBinAddr: 0x100004A10, symSize: 0x30 }
  - { offsetInCU: 0xFE7E, offset: 0xFE7E, size: 0x8, addend: 0x0, symName: __ZNSt3__114__split_bufferIPP6BTNodeRNS_9allocatorIS3_EEE9push_backEOS3_, symObjAddr: 0x2660, symBinAddr: 0x100004A40, symSize: 0x290 }
  - { offsetInCU: 0xFEF7, offset: 0xFEF7, size: 0x8, addend: 0x0, symName: __ZNKSt3__110unique_ptrIPP6BTNodeNS_22__allocator_destructorINS_9allocatorIS2_EEEEE3getB7v160006Ev, symObjAddr: 0x28F0, symBinAddr: 0x100004CD0, symSize: 0x20 }
  - { offsetInCU: 0xFF1D, offset: 0xFF1D, size: 0x8, addend: 0x0, symName: __ZNSt3__110unique_ptrIPP6BTNodeNS_22__allocator_destructorINS_9allocatorIS2_EEEEE7releaseB7v160006Ev, symObjAddr: 0x2910, symBinAddr: 0x100004CF0, symSize: 0x40 }
  - { offsetInCU: 0xFF52, offset: 0xFF52, size: 0x8, addend: 0x0, symName: __ZNSt3__114__split_bufferIPP6BTNodeNS_9allocatorIS3_EEE3endB7v160006Ev, symObjAddr: 0x2950, symBinAddr: 0x100004D30, symSize: 0x20 }
  - { offsetInCU: 0xFF78, offset: 0xFF78, size: 0x8, addend: 0x0, symName: __ZNSt3__114__split_bufferIPP6BTNodeNS_9allocatorIS3_EEE5beginB7v160006Ev, symObjAddr: 0x2970, symBinAddr: 0x100004D50, symSize: 0x20 }
  - { offsetInCU: 0xFF9E, offset: 0xFF9E, size: 0x8, addend: 0x0, symName: __ZNSt3__114__split_bufferIPP6BTNodeRNS_9allocatorIS3_EEE10push_frontERKS3_, symObjAddr: 0x2990, symBinAddr: 0x100004D70, symSize: 0x270 }
  - { offsetInCU: 0x10017, offset: 0x10017, size: 0x8, addend: 0x0, symName: __ZNSt3__114__split_bufferIPP6BTNodeNS_9allocatorIS3_EEE9__end_capB7v160006Ev, symObjAddr: 0x2C40, symBinAddr: 0x100005020, symSize: 0x20 }
  - { offsetInCU: 0x1003D, offset: 0x1003D, size: 0x8, addend: 0x0, symName: __ZNSt3__114__split_bufferIPP6BTNodeRNS_9allocatorIS3_EEE9__end_capB7v160006Ev, symObjAddr: 0x2C60, symBinAddr: 0x100005040, symSize: 0x20 }
  - { offsetInCU: 0x10063, offset: 0x10063, size: 0x8, addend: 0x0, symName: __ZNSt3__110unique_ptrIPP6BTNodeNS_22__allocator_destructorINS_9allocatorIS2_EEEEED1B7v160006Ev, symObjAddr: 0x2C80, symBinAddr: 0x100005060, symSize: 0x20 }
  - { offsetInCU: 0x1008D, offset: 0x1008D, size: 0x8, addend: 0x0, symName: __ZNSt3__114__split_bufferIPP6BTNodeRNS_9allocatorIS3_EEED1Ev, symObjAddr: 0x2CA0, symBinAddr: 0x100005080, symSize: 0x20 }
  - { offsetInCU: 0x100B9, offset: 0x100B9, size: 0x8, addend: 0x0, symName: __ZNSt3__114__split_bufferIPP6BTNodeNS_9allocatorIS3_EEE19__destruct_at_beginB7v160006EPS3_, symObjAddr: 0x2CC0, symBinAddr: 0x1000050A0, symSize: 0x30 }
  - { offsetInCU: 0x100ED, offset: 0x100ED, size: 0x8, addend: 0x0, symName: __ZNSt3__114__split_bufferIPP6BTNodeNS_9allocatorIS3_EEE19__destruct_at_beginEPS3_NS_17integral_constantIbLb1EEE, symObjAddr: 0x2CF0, symBinAddr: 0x1000050D0, symSize: 0x20 }
  - { offsetInCU: 0x1012D, offset: 0x1012D, size: 0x8, addend: 0x0, symName: __ZNSt3__114__split_bufferIPP6BTNodeRNS_9allocatorIS3_EEE18__construct_at_endINS_13move_iteratorIPS3_EEEENS_9enable_ifIXsr27__is_cpp17_forward_iteratorIT_EE5valueEvE4typeESD_SD_, symObjAddr: 0x2D50, symBinAddr: 0x100005130, symSize: 0x100 }
  - { offsetInCU: 0x10189, offset: 0x10189, size: 0x8, addend: 0x0, symName: __ZNSt3__113move_iteratorIPPP6BTNodeEC1B7v160006ES4_, symObjAddr: 0x2E50, symBinAddr: 0x100005230, symSize: 0x30 }
  - { offsetInCU: 0x101C1, offset: 0x101C1, size: 0x8, addend: 0x0, symName: __ZNSt3__116allocator_traitsINS_9allocatorIPP6BTNodeEEE9constructB7v160006IS4_JRKS4_EvEEvRS5_PT_DpOT0_, symObjAddr: 0x2E80, symBinAddr: 0x100005260, symSize: 0x30 }
  - { offsetInCU: 0x1023B, offset: 0x1023B, size: 0x8, addend: 0x0, symName: __ZNKSt3__114__move_trivialclB7v160006IPP6BTNodeS4_Li0EEENS_4pairIPT_PT0_EES7_S7_S9_, symObjAddr: 0x3040, symBinAddr: 0x100005420, symSize: 0x40 }
  - { offsetInCU: 0x102A8, offset: 0x102A8, size: 0x8, addend: 0x0, symName: __ZNSt3__14pairIPPP6BTNodeS4_EC1B7v160006IRS4_S4_LPv0EEEOT_OT0_, symObjAddr: 0x31E0, symBinAddr: 0x1000055C0, symSize: 0x30 }
  - { offsetInCU: 0x10306, offset: 0x10306, size: 0x8, addend: 0x0, symName: __ZNSt3__14pairIPPP6BTNodeS4_EC2B7v160006IRS4_S4_LPv0EEEOT_OT0_, symObjAddr: 0x3210, symBinAddr: 0x1000055F0, symSize: 0x30 }
  - { offsetInCU: 0x10364, offset: 0x10364, size: 0x8, addend: 0x0, symName: __ZNSt3__118__unwrap_iter_implIPPP6BTNodeLb1EE8__unwrapB7v160006ES4_, symObjAddr: 0x3240, symBinAddr: 0x100005620, symSize: 0x20 }
  - { offsetInCU: 0x10387, offset: 0x10387, size: 0x8, addend: 0x0, symName: __ZNSt3__14pairIPPP6BTNodeS4_EC1B7v160006IS4_S4_LPv0EEEOT_OT0_, symObjAddr: 0x3260, symBinAddr: 0x100005640, symSize: 0x30 }
  - { offsetInCU: 0x103E5, offset: 0x103E5, size: 0x8, addend: 0x0, symName: __ZNSt3__14pairIPPP6BTNodeS4_EC2B7v160006IS4_S4_LPv0EEEOT_OT0_, symObjAddr: 0x3290, symBinAddr: 0x100005670, symSize: 0x30 }
  - { offsetInCU: 0x10443, offset: 0x10443, size: 0x8, addend: 0x0, symName: __ZNSt3__118__unwrap_iter_implIPPP6BTNodeLb1EE8__rewrapB7v160006ES4_S4_, symObjAddr: 0x32C0, symBinAddr: 0x1000056A0, symSize: 0x50 }
  - { offsetInCU: 0x1047E, offset: 0x1047E, size: 0x8, addend: 0x0, symName: __ZNSt3__114__split_bufferIPP6BTNodeRNS_9allocatorIS3_EEE21_ConstructTransactionC1B7v160006EPPS3_m, symObjAddr: 0x3350, symBinAddr: 0x100005730, symSize: 0x30 }
  - { offsetInCU: 0x104C4, offset: 0x104C4, size: 0x8, addend: 0x0, symName: __ZNSt3__116allocator_traitsINS_9allocatorIPP6BTNodeEEE9constructB7v160006IS4_JS4_EvEEvRS5_PT_DpOT0_, symObjAddr: 0x3380, symBinAddr: 0x100005760, symSize: 0x30 }
  - { offsetInCU: 0x1051B, offset: 0x1051B, size: 0x8, addend: 0x0, symName: __ZNSt3__114__split_bufferIPP6BTNodeRNS_9allocatorIS3_EEE7__allocB7v160006Ev, symObjAddr: 0x33B0, symBinAddr: 0x100005790, symSize: 0x20 }
  - { offsetInCU: 0x10541, offset: 0x10541, size: 0x8, addend: 0x0, symName: __ZNKSt3__113move_iteratorIPPP6BTNodeEdeB7v160006Ev, symObjAddr: 0x33D0, symBinAddr: 0x1000057B0, symSize: 0x20 }
  - { offsetInCU: 0x10567, offset: 0x10567, size: 0x8, addend: 0x0, symName: __ZNSt3__113move_iteratorIPPP6BTNodeEppB7v160006Ev, symObjAddr: 0x33F0, symBinAddr: 0x1000057D0, symSize: 0x20 }
  - { offsetInCU: 0x1058D, offset: 0x1058D, size: 0x8, addend: 0x0, symName: __ZNSt3__114__split_bufferIPP6BTNodeRNS_9allocatorIS3_EEE21_ConstructTransactionD1B7v160006Ev, symObjAddr: 0x3410, symBinAddr: 0x1000057F0, symSize: 0x20 }
  - { offsetInCU: 0x105B7, offset: 0x105B7, size: 0x8, addend: 0x0, symName: __ZNKSt3__113move_iteratorIPPP6BTNodeE4baseB7v160006Ev, symObjAddr: 0x34A0, symBinAddr: 0x100005880, symSize: 0x20 }
  - { offsetInCU: 0x105DD, offset: 0x105DD, size: 0x8, addend: 0x0, symName: __ZNSt3__114__split_bufferIPP6BTNodeRNS_9allocatorIS3_EEE21_ConstructTransactionC2B7v160006EPPS3_m, symObjAddr: 0x34C0, symBinAddr: 0x1000058A0, symSize: 0x40 }
  - { offsetInCU: 0x10623, offset: 0x10623, size: 0x8, addend: 0x0, symName: __ZNSt3__19allocatorIPP6BTNodeE9constructB7v160006IS3_JS3_EEEvPT_DpOT0_, symObjAddr: 0x3500, symBinAddr: 0x1000058E0, symSize: 0x20 }
  - { offsetInCU: 0x10679, offset: 0x10679, size: 0x8, addend: 0x0, symName: __ZNSt3__117__compressed_pairIPPP6BTNodeRNS_9allocatorIS3_EEE6secondB7v160006Ev, symObjAddr: 0x3520, symBinAddr: 0x100005900, symSize: 0x20 }
  - { offsetInCU: 0x1069F, offset: 0x1069F, size: 0x8, addend: 0x0, symName: __ZNSt3__122__compressed_pair_elemIRNS_9allocatorIPP6BTNodeEELi1ELb0EE5__getB7v160006Ev, symObjAddr: 0x3540, symBinAddr: 0x100005920, symSize: 0x20 }
  - { offsetInCU: 0x106C5, offset: 0x106C5, size: 0x8, addend: 0x0, symName: __ZNSt3__114__split_bufferIPP6BTNodeRNS_9allocatorIS3_EEE21_ConstructTransactionD2B7v160006Ev, symObjAddr: 0x3560, symBinAddr: 0x100005940, symSize: 0x20 }
  - { offsetInCU: 0x106EF, offset: 0x106EF, size: 0x8, addend: 0x0, symName: __ZNSt3__113move_iteratorIPPP6BTNodeEC2B7v160006ES4_, symObjAddr: 0x3580, symBinAddr: 0x100005960, symSize: 0x20 }
  - { offsetInCU: 0x10727, offset: 0x10727, size: 0x8, addend: 0x0, symName: __ZNSt3__19allocatorIPP6BTNodeE9constructB7v160006IS3_JRKS3_EEEvPT_DpOT0_, symObjAddr: 0x35A0, symBinAddr: 0x100005980, symSize: 0x20 }
  - { offsetInCU: 0x1077D, offset: 0x1077D, size: 0x8, addend: 0x0, symName: __ZNKSt3__114__split_bufferIPP6BTNodeNS_9allocatorIS3_EEE9__end_capB7v160006Ev, symObjAddr: 0x35C0, symBinAddr: 0x1000059A0, symSize: 0x20 }
  - { offsetInCU: 0x107A3, offset: 0x107A3, size: 0x8, addend: 0x0, symName: __ZNKSt3__117__compressed_pairIPPP6BTNodeNS_9allocatorIS3_EEE5firstB7v160006Ev, symObjAddr: 0x35E0, symBinAddr: 0x1000059C0, symSize: 0x20 }
  - { offsetInCU: 0x107C9, offset: 0x107C9, size: 0x8, addend: 0x0, symName: __ZNKSt3__122__compressed_pair_elemIPPP6BTNodeLi0ELb0EE5__getB7v160006Ev, symObjAddr: 0x3600, symBinAddr: 0x1000059E0, symSize: 0x10 }
  - { offsetInCU: 0x107EF, offset: 0x107EF, size: 0x8, addend: 0x0, symName: __ZNSt3__19allocatorIP6BTNodeE8allocateB7v160006Em, symObjAddr: 0x3610, symBinAddr: 0x1000059F0, symSize: 0x50 }
  - { offsetInCU: 0x1082D, offset: 0x1082D, size: 0x8, addend: 0x0, symName: __ZNSt3__116allocator_traitsINS_9allocatorIP6BTNodeEEE8max_sizeB7v160006IS4_vEEmRKS4_, symObjAddr: 0x3660, symBinAddr: 0x100005A40, symSize: 0x20 }
  - { offsetInCU: 0x1085B, offset: 0x1085B, size: 0x8, addend: 0x0, symName: __ZNKSt3__19allocatorIP6BTNodeE8max_sizeB7v160006Ev, symObjAddr: 0x36E0, symBinAddr: 0x100005AC0, symSize: 0x20 }
  - { offsetInCU: 0x1088B, offset: 0x1088B, size: 0x8, addend: 0x0, symName: __ZNKSt3__123__move_backward_trivialclB7v160006IPP6BTNodeS4_Li0EEENS_4pairIPT_PT0_EES7_S7_S9_, symObjAddr: 0x3890, symBinAddr: 0x100005C70, symSize: 0x40 }
  - { offsetInCU: 0x108F3, offset: 0x108F3, size: 0x8, addend: 0x0, symName: __ZNSt3__14pairIPPP6BTNodeS4_EC1B7v160006IRS4_S7_LPv0EEEOT_OT0_, symObjAddr: 0x3980, symBinAddr: 0x100005D60, symSize: 0x30 }
  - { offsetInCU: 0x10951, offset: 0x10951, size: 0x8, addend: 0x0, symName: __ZNSt3__14pairIPPP6BTNodeS4_EC2B7v160006IRS4_S7_LPv0EEEOT_OT0_, symObjAddr: 0x39B0, symBinAddr: 0x100005D90, symSize: 0x30 }
  - { offsetInCU: 0x109B9, offset: 0x109B9, size: 0x8, addend: 0x0, symName: __ZNKSt3__16__lessImmEclB7v160006ERKmS3_, symObjAddr: 0x3A30, symBinAddr: 0x100005E10, symSize: 0x30 }
  - { offsetInCU: 0x109FB, offset: 0x109FB, size: 0x8, addend: 0x0, symName: __ZNSt3__117__compressed_pairIPPP6BTNodeNS_9allocatorIS3_EEE6secondB7v160006Ev, symObjAddr: 0x3A60, symBinAddr: 0x100005E40, symSize: 0x20 }
  - { offsetInCU: 0x10A21, offset: 0x10A21, size: 0x8, addend: 0x0, symName: __ZNSt3__122__compressed_pair_elemINS_9allocatorIPP6BTNodeEELi1ELb1EE5__getB7v160006Ev, symObjAddr: 0x3A80, symBinAddr: 0x100005E60, symSize: 0x10 }
  - { offsetInCU: 0x10A47, offset: 0x10A47, size: 0x8, addend: 0x0, symName: __ZNSt3__114__split_bufferIPP6BTNodeRNS_9allocatorIS3_EEEC2EmmS6_, symObjAddr: 0x3A90, symBinAddr: 0x100005E70, symSize: 0xD0 }
  - { offsetInCU: 0x10ABB, offset: 0x10ABB, size: 0x8, addend: 0x0, symName: __ZNSt3__117__compressed_pairIPPP6BTNodeRNS_9allocatorIS3_EEEC1B7v160006IDnS7_EEOT_OT0_, symObjAddr: 0x3B60, symBinAddr: 0x100005F40, symSize: 0x30 }
  - { offsetInCU: 0x10B13, offset: 0x10B13, size: 0x8, addend: 0x0, symName: __ZNSt3__117__compressed_pairIPPP6BTNodeRNS_9allocatorIS3_EEEC2B7v160006IDnS7_EEOT_OT0_, symObjAddr: 0x3BD0, symBinAddr: 0x100005FB0, symSize: 0x40 }
  - { offsetInCU: 0x10B6B, offset: 0x10B6B, size: 0x8, addend: 0x0, symName: __ZNSt3__122__compressed_pair_elemIRNS_9allocatorIPP6BTNodeEELi1ELb0EEC2B7v160006IS6_vEEOT_, symObjAddr: 0x3C10, symBinAddr: 0x100005FF0, symSize: 0x20 }
  - { offsetInCU: 0x10BAD, offset: 0x10BAD, size: 0x8, addend: 0x0, symName: __ZNSt3__19allocatorIPP6BTNodeE8allocateB7v160006Em, symObjAddr: 0x3C30, symBinAddr: 0x100006010, symSize: 0x50 }
  - { offsetInCU: 0x10BEB, offset: 0x10BEB, size: 0x8, addend: 0x0, symName: __ZNSt3__116allocator_traitsINS_9allocatorIPP6BTNodeEEE8max_sizeB7v160006IS5_vEEmRKS5_, symObjAddr: 0x3C80, symBinAddr: 0x100006060, symSize: 0x20 }
  - { offsetInCU: 0x10C19, offset: 0x10C19, size: 0x8, addend: 0x0, symName: __ZNKSt3__19allocatorIPP6BTNodeE8max_sizeB7v160006Ev, symObjAddr: 0x3CA0, symBinAddr: 0x100006080, symSize: 0x20 }
  - { offsetInCU: 0x10C3F, offset: 0x10C3F, size: 0x8, addend: 0x0, symName: __ZNSt3__122__allocator_destructorINS_9allocatorIP6BTNodeEEEC2B7v160006ERS4_m, symObjAddr: 0x3CC0, symBinAddr: 0x1000060A0, symSize: 0x30 }
  - { offsetInCU: 0x10C85, offset: 0x10C85, size: 0x8, addend: 0x0, symName: __ZNSt3__110unique_ptrIPP6BTNodeNS_22__allocator_destructorINS_9allocatorIS2_EEEEEC2B7v160006ILb1EvEES3_NS_16__dependent_typeINS_27__unique_ptr_deleter_sfinaeIS7_EEXT_EE20__good_rval_ref_typeE, symObjAddr: 0x3CF0, symBinAddr: 0x1000060D0, symSize: 0x40 }
  - { offsetInCU: 0x10CD6, offset: 0x10CD6, size: 0x8, addend: 0x0, symName: __ZNSt3__117__compressed_pairIPP6BTNodeNS_22__allocator_destructorINS_9allocatorIS2_EEEEEC1B7v160006IRS3_S7_EEOT_OT0_, symObjAddr: 0x3D30, symBinAddr: 0x100006110, symSize: 0x30 }
  - { offsetInCU: 0x10D2E, offset: 0x10D2E, size: 0x8, addend: 0x0, symName: __ZNSt3__117__compressed_pairIPP6BTNodeNS_22__allocator_destructorINS_9allocatorIS2_EEEEEC2B7v160006IRS3_S7_EEOT_OT0_, symObjAddr: 0x3D60, symBinAddr: 0x100006140, symSize: 0x40 }
  - { offsetInCU: 0x10D86, offset: 0x10D86, size: 0x8, addend: 0x0, symName: __ZNSt3__122__compressed_pair_elemIPP6BTNodeLi0ELb0EEC2B7v160006IRS3_vEEOT_, symObjAddr: 0x3DA0, symBinAddr: 0x100006180, symSize: 0x20 }
  - { offsetInCU: 0x10DC8, offset: 0x10DC8, size: 0x8, addend: 0x0, symName: __ZNSt3__122__compressed_pair_elemINS_22__allocator_destructorINS_9allocatorIP6BTNodeEEEELi1ELb0EEC2B7v160006IS6_vEEOT_, symObjAddr: 0x3DC0, symBinAddr: 0x1000061A0, symSize: 0x30 }
  - { offsetInCU: 0x10E0A, offset: 0x10E0A, size: 0x8, addend: 0x0, symName: __ZNKSt3__117__compressed_pairIPP6BTNodeNS_22__allocator_destructorINS_9allocatorIS2_EEEEE5firstB7v160006Ev, symObjAddr: 0x3DF0, symBinAddr: 0x1000061D0, symSize: 0x20 }
  - { offsetInCU: 0x10E30, offset: 0x10E30, size: 0x8, addend: 0x0, symName: __ZNKSt3__122__compressed_pair_elemIPP6BTNodeLi0ELb0EE5__getB7v160006Ev, symObjAddr: 0x3E10, symBinAddr: 0x1000061F0, symSize: 0x10 }
  - { offsetInCU: 0x10E56, offset: 0x10E56, size: 0x8, addend: 0x0, symName: __ZNSt3__117__compressed_pairIPP6BTNodeNS_22__allocator_destructorINS_9allocatorIS2_EEEEE5firstB7v160006Ev, symObjAddr: 0x3E20, symBinAddr: 0x100006200, symSize: 0x20 }
  - { offsetInCU: 0x10E7C, offset: 0x10E7C, size: 0x8, addend: 0x0, symName: __ZNSt3__122__compressed_pair_elemIPP6BTNodeLi0ELb0EE5__getB7v160006Ev, symObjAddr: 0x3E40, symBinAddr: 0x100006220, symSize: 0x10 }
  - { offsetInCU: 0x10EA2, offset: 0x10EA2, size: 0x8, addend: 0x0, symName: __ZNSt3__117__compressed_pairIPPP6BTNodeNS_9allocatorIS3_EEE5firstB7v160006Ev, symObjAddr: 0x3E50, symBinAddr: 0x100006230, symSize: 0x20 }
  - { offsetInCU: 0x10EC8, offset: 0x10EC8, size: 0x8, addend: 0x0, symName: __ZNSt3__122__compressed_pair_elemIPPP6BTNodeLi0ELb0EE5__getB7v160006Ev, symObjAddr: 0x3E70, symBinAddr: 0x100006250, symSize: 0x10 }
  - { offsetInCU: 0x10EEE, offset: 0x10EEE, size: 0x8, addend: 0x0, symName: __ZNSt3__117__compressed_pairIPPP6BTNodeRNS_9allocatorIS3_EEE5firstB7v160006Ev, symObjAddr: 0x3E80, symBinAddr: 0x100006260, symSize: 0x20 }
  - { offsetInCU: 0x10F14, offset: 0x10F14, size: 0x8, addend: 0x0, symName: __ZNSt3__110unique_ptrIPP6BTNodeNS_22__allocator_destructorINS_9allocatorIS2_EEEEED2B7v160006Ev, symObjAddr: 0x3EA0, symBinAddr: 0x100006280, symSize: 0x20 }
  - { offsetInCU: 0x10F3E, offset: 0x10F3E, size: 0x8, addend: 0x0, symName: __ZNSt3__110unique_ptrIPP6BTNodeNS_22__allocator_destructorINS_9allocatorIS2_EEEEE5resetB7v160006ES3_, symObjAddr: 0x3EC0, symBinAddr: 0x1000062A0, symSize: 0x70 }
  - { offsetInCU: 0x10F82, offset: 0x10F82, size: 0x8, addend: 0x0, symName: __ZNSt3__117__compressed_pairIPP6BTNodeNS_22__allocator_destructorINS_9allocatorIS2_EEEEE6secondB7v160006Ev, symObjAddr: 0x3F30, symBinAddr: 0x100006310, symSize: 0x20 }
  - { offsetInCU: 0x10FA8, offset: 0x10FA8, size: 0x8, addend: 0x0, symName: __ZNSt3__122__allocator_destructorINS_9allocatorIP6BTNodeEEEclB7v160006EPS3_, symObjAddr: 0x3F50, symBinAddr: 0x100006330, symSize: 0x30 }
  - { offsetInCU: 0x10FDC, offset: 0x10FDC, size: 0x8, addend: 0x0, symName: __ZNSt3__122__compressed_pair_elemINS_22__allocator_destructorINS_9allocatorIP6BTNodeEEEELi1ELb0EE5__getB7v160006Ev, symObjAddr: 0x3F80, symBinAddr: 0x100006360, symSize: 0x10 }
  - { offsetInCU: 0x11002, offset: 0x11002, size: 0x8, addend: 0x0, symName: __ZNSt3__116allocator_traitsINS_9allocatorIP6BTNodeEEE10deallocateB7v160006ERS4_PS3_m, symObjAddr: 0x3F90, symBinAddr: 0x100006370, symSize: 0x30 }
  - { offsetInCU: 0x11044, offset: 0x11044, size: 0x8, addend: 0x0, symName: __ZNSt3__19allocatorIP6BTNodeE10deallocateB7v160006EPS2_m, symObjAddr: 0x3FC0, symBinAddr: 0x1000063A0, symSize: 0x40 }
  - { offsetInCU: 0x11086, offset: 0x11086, size: 0x8, addend: 0x0, symName: __ZNSt3__114__split_bufferIPP6BTNodeRNS_9allocatorIS3_EEED2Ev, symObjAddr: 0x4070, symBinAddr: 0x100006450, symSize: 0x70 }
  - { offsetInCU: 0x110B2, offset: 0x110B2, size: 0x8, addend: 0x0, symName: __ZNSt3__114__split_bufferIPP6BTNodeRNS_9allocatorIS3_EEE5clearB7v160006Ev, symObjAddr: 0x40E0, symBinAddr: 0x1000064C0, symSize: 0x20 }
  - { offsetInCU: 0x110D8, offset: 0x110D8, size: 0x8, addend: 0x0, symName: __ZNSt3__116allocator_traitsINS_9allocatorIPP6BTNodeEEE10deallocateB7v160006ERS5_PS4_m, symObjAddr: 0x4100, symBinAddr: 0x1000064E0, symSize: 0x30 }
  - { offsetInCU: 0x1111A, offset: 0x1111A, size: 0x8, addend: 0x0, symName: __ZNKSt3__114__split_bufferIPP6BTNodeRNS_9allocatorIS3_EEE8capacityB7v160006Ev, symObjAddr: 0x4130, symBinAddr: 0x100006510, symSize: 0x30 }
  - { offsetInCU: 0x11140, offset: 0x11140, size: 0x8, addend: 0x0, symName: __ZNSt3__114__split_bufferIPP6BTNodeRNS_9allocatorIS3_EEE17__destruct_at_endB7v160006EPS3_, symObjAddr: 0x4160, symBinAddr: 0x100006540, symSize: 0x30 }
  - { offsetInCU: 0x11174, offset: 0x11174, size: 0x8, addend: 0x0, symName: __ZNSt3__114__split_bufferIPP6BTNodeRNS_9allocatorIS3_EEE17__destruct_at_endB7v160006EPS3_NS_17integral_constantIbLb0EEE, symObjAddr: 0x4190, symBinAddr: 0x100006570, symSize: 0x80 }
  - { offsetInCU: 0x111B4, offset: 0x111B4, size: 0x8, addend: 0x0, symName: __ZNSt3__116allocator_traitsINS_9allocatorIPP6BTNodeEEE7destroyB7v160006IS4_vEEvRS5_PT_, symObjAddr: 0x4210, symBinAddr: 0x1000065F0, symSize: 0x30 }
  - { offsetInCU: 0x111F1, offset: 0x111F1, size: 0x8, addend: 0x0, symName: __ZNSt3__19allocatorIPP6BTNodeE7destroyB7v160006EPS3_, symObjAddr: 0x4240, symBinAddr: 0x100006620, symSize: 0x10 }
  - { offsetInCU: 0x11225, offset: 0x11225, size: 0x8, addend: 0x0, symName: __ZNSt3__19allocatorIPP6BTNodeE10deallocateB7v160006EPS3_m, symObjAddr: 0x4250, symBinAddr: 0x100006630, symSize: 0x40 }
  - { offsetInCU: 0x11267, offset: 0x11267, size: 0x8, addend: 0x0, symName: __ZNKSt3__114__split_bufferIPP6BTNodeRNS_9allocatorIS3_EEE9__end_capB7v160006Ev, symObjAddr: 0x4290, symBinAddr: 0x100006670, symSize: 0x20 }
  - { offsetInCU: 0x1128D, offset: 0x1128D, size: 0x8, addend: 0x0, symName: __ZNKSt3__117__compressed_pairIPPP6BTNodeRNS_9allocatorIS3_EEE5firstB7v160006Ev, symObjAddr: 0x42B0, symBinAddr: 0x100006690, symSize: 0x20 }
  - { offsetInCU: 0x112B3, offset: 0x112B3, size: 0x8, addend: 0x0, symName: __ZNSt3__19allocatorIP6BTNodeE9constructB7v160006IS2_JRKS2_EEEvPT_DpOT0_, symObjAddr: 0x42D0, symBinAddr: 0x1000066B0, symSize: 0x20 }
  - { offsetInCU: 0x11309, offset: 0x11309, size: 0x8, addend: 0x0, symName: __ZNKSt3__114__split_bufferIPP6BTNodeNS_9allocatorIS3_EEE5emptyB7v160006Ev, symObjAddr: 0x42F0, symBinAddr: 0x1000066D0, symSize: 0x20 }
  - { offsetInCU: 0x1132F, offset: 0x1132F, size: 0x8, addend: 0x0, symName: __ZNSt3__116__deque_iteratorIP6BTNodePS2_RS2_PS3_lLl512EEC1B7v160006ES5_S3_, symObjAddr: 0x4310, symBinAddr: 0x1000066F0, symSize: 0x30 }
  - { offsetInCU: 0x11377, offset: 0x11377, size: 0x8, addend: 0x0, symName: __ZNSt3__116__deque_iteratorIP6BTNodePS2_RS2_PS3_lLl512EEC2B7v160006ES5_S3_, symObjAddr: 0x4340, symBinAddr: 0x100006720, symSize: 0x30 }
  - { offsetInCU: 0x113BF, offset: 0x113BF, size: 0x8, addend: 0x0, symName: __ZNSt3__117__compressed_pairImNS_9allocatorIP6BTNodeEEE5firstB7v160006Ev, symObjAddr: 0x4370, symBinAddr: 0x100006750, symSize: 0x20 }
  - { offsetInCU: 0x113E5, offset: 0x113E5, size: 0x8, addend: 0x0, symName: __ZNSt3__122__compressed_pair_elemImLi0ELb0EE5__getB7v160006Ev, symObjAddr: 0x4390, symBinAddr: 0x100006770, symSize: 0x10 }
  - { offsetInCU: 0x1140B, offset: 0x1140B, size: 0x8, addend: 0x0, symName: __ZNSt3__15dequeIP6BTNodeNS_9allocatorIS2_EEE8pop_backEv, symObjAddr: 0x43A0, symBinAddr: 0x100006780, symSize: 0xA0 }
  - { offsetInCU: 0x11451, offset: 0x11451, size: 0x8, addend: 0x0, symName: __ZNSt3__116allocator_traitsINS_9allocatorIP6BTNodeEEE7destroyB7v160006IS3_vEEvRS4_PT_, symObjAddr: 0x4440, symBinAddr: 0x100006820, symSize: 0x30 }
  - { offsetInCU: 0x1148E, offset: 0x1148E, size: 0x8, addend: 0x0, symName: __ZNSt3__15dequeIP6BTNodeNS_9allocatorIS2_EEE25__maybe_remove_back_spareB7v160006Eb, symObjAddr: 0x4480, symBinAddr: 0x100006860, symSize: 0xA0 }
  - { offsetInCU: 0x114C3, offset: 0x114C3, size: 0x8, addend: 0x0, symName: __ZNSt3__19allocatorIP6BTNodeE7destroyB7v160006EPS2_, symObjAddr: 0x4520, symBinAddr: 0x100006900, symSize: 0x10 }
  - { offsetInCU: 0x114F7, offset: 0x114F7, size: 0x8, addend: 0x0, symName: __ZNKSt3__15dequeIP6BTNodeNS_9allocatorIS2_EEE19__back_spare_blocksB7v160006Ev, symObjAddr: 0x4530, symBinAddr: 0x100006910, symSize: 0x20 }
  - { offsetInCU: 0x1151D, offset: 0x1151D, size: 0x8, addend: 0x0, symName: __ZNSt3__114__split_bufferIPP6BTNodeNS_9allocatorIS3_EEE4backB7v160006Ev, symObjAddr: 0x4550, symBinAddr: 0x100006930, symSize: 0x20 }
  - { offsetInCU: 0x11543, offset: 0x11543, size: 0x8, addend: 0x0, symName: __ZNSt3__114__split_bufferIPP6BTNodeNS_9allocatorIS3_EEE8pop_backB7v160006Ev, symObjAddr: 0x4570, symBinAddr: 0x100006950, symSize: 0x30 }
  - { offsetInCU: 0x11569, offset: 0x11569, size: 0x8, addend: 0x0, symName: __ZNSt3__114__split_bufferIPP6BTNodeNS_9allocatorIS3_EEE17__destruct_at_endB7v160006EPS3_, symObjAddr: 0x45A0, symBinAddr: 0x100006980, symSize: 0x30 }
  - { offsetInCU: 0x1159D, offset: 0x1159D, size: 0x8, addend: 0x0, symName: __ZNSt3__114__split_bufferIPP6BTNodeNS_9allocatorIS3_EEE17__destruct_at_endB7v160006EPS3_NS_17integral_constantIbLb0EEE, symObjAddr: 0x45D0, symBinAddr: 0x1000069B0, symSize: 0x80 }
  - { offsetInCU: 0x115DD, offset: 0x115DD, size: 0x8, addend: 0x0, symName: __ZN6BTNodeC2Ec, symObjAddr: 0x4650, symBinAddr: 0x100006A30, symSize: 0x30 }
  - { offsetInCU: 0x11615, offset: 0x11615, size: 0x8, addend: 0x0, symName: __ZNKSt3__15dequeIP6BTNodeNS_9allocatorIS2_EEE5emptyB7v160006Ev, symObjAddr: 0x4680, symBinAddr: 0x100006A60, symSize: 0x30 }
  - { offsetInCU: 0x1163B, offset: 0x1163B, size: 0x8, addend: 0x0, symName: __ZNSt3__15dequeIP6BTNodeNS_9allocatorIS2_EEE4backEv, symObjAddr: 0x46B0, symBinAddr: 0x100006A90, symSize: 0x60 }
  - { offsetInCU: 0x11672, offset: 0x11672, size: 0x8, addend: 0x0, symName: __ZNSt3__15stackIP6BTNodeNS_5dequeIS2_NS_9allocatorIS2_EEEEED2Ev, symObjAddr: 0x4710, symBinAddr: 0x100006AF0, symSize: 0x20 }
  - { offsetInCU: 0x1169E, offset: 0x1169E, size: 0x8, addend: 0x0, symName: __ZNSt3__15dequeIP6BTNodeNS_9allocatorIS2_EEED1B7v160006Ev, symObjAddr: 0x4730, symBinAddr: 0x100006B10, symSize: 0x20 }
  - { offsetInCU: 0x116C8, offset: 0x116C8, size: 0x8, addend: 0x0, symName: __ZNSt3__15dequeIP6BTNodeNS_9allocatorIS2_EEED2B7v160006Ev, symObjAddr: 0x4750, symBinAddr: 0x100006B30, symSize: 0x80 }
  - { offsetInCU: 0x1171F, offset: 0x1171F, size: 0x8, addend: 0x0, symName: __ZNSt3__15dequeIP6BTNodeNS_9allocatorIS2_EEE5clearEv, symObjAddr: 0x47D0, symBinAddr: 0x100006BB0, symSize: 0x160 }
  - { offsetInCU: 0x1177A, offset: 0x1177A, size: 0x8, addend: 0x0, symName: __ZNSt3__114__split_bufferIPP6BTNodeNS_9allocatorIS3_EEED1Ev, symObjAddr: 0x4930, symBinAddr: 0x100006D10, symSize: 0x20 }
  - { offsetInCU: 0x117A6, offset: 0x117A6, size: 0x8, addend: 0x0, symName: __ZNSt3__15dequeIP6BTNodeNS_9allocatorIS2_EEE5beginB7v160006Ev, symObjAddr: 0x4950, symBinAddr: 0x100006D30, symSize: 0xA0 }
  - { offsetInCU: 0x117DB, offset: 0x117DB, size: 0x8, addend: 0x0, symName: __ZNSt3__116__deque_iteratorIP6BTNodePS2_RS2_PS3_lLl512EEppB7v160006Ev, symObjAddr: 0x4A20, symBinAddr: 0x100006E00, symSize: 0x60 }
  - { offsetInCU: 0x11801, offset: 0x11801, size: 0x8, addend: 0x0, symName: __ZNSt3__114__split_bufferIPP6BTNodeNS_9allocatorIS3_EEED2Ev, symObjAddr: 0x4AB0, symBinAddr: 0x100006E90, symSize: 0x60 }
  - { offsetInCU: 0x1182D, offset: 0x1182D, size: 0x8, addend: 0x0, symName: __ZNSt3__114__split_bufferIPP6BTNodeNS_9allocatorIS3_EEE5clearB7v160006Ev, symObjAddr: 0x4B10, symBinAddr: 0x100006EF0, symSize: 0x20 }
  - { offsetInCU: 0x11853, offset: 0x11853, size: 0x8, addend: 0x0, symName: __ZN5BTree10DispBTree1EP6BTNode, symObjAddr: 0x4B30, symBinAddr: 0x100006F10, symSize: 0xD0 }
  - { offsetInCU: 0x11887, offset: 0x11887, size: 0x8, addend: 0x0, symName: __ZN5BTree7Height1EP6BTNode, symObjAddr: 0x4C00, symBinAddr: 0x100006FE0, symSize: 0x80 }
  - { offsetInCU: 0x118CF, offset: 0x118CF, size: 0x8, addend: 0x0, symName: __ZNKSt3__16__lessIiiEclB7v160006ERKiS3_, symObjAddr: 0x4D00, symBinAddr: 0x1000070E0, symSize: 0x30 }
  - { offsetInCU: 0x11911, offset: 0x11911, size: 0x8, addend: 0x0, symName: __ZN5BTree9FindNode1EP6BTNodec, symObjAddr: 0x4D30, symBinAddr: 0x100007110, symSize: 0xB0 }
  - { offsetInCU: 0x11961, offset: 0x11961, size: 0x8, addend: 0x0, symName: __ZN5BTreeD2Ev, symObjAddr: 0x4DE0, symBinAddr: 0x1000071C0, symSize: 0x40 }
  - { offsetInCU: 0x1198B, offset: 0x1198B, size: 0x8, addend: 0x0, symName: __ZN5BTree12DestroyBTreeEP6BTNode, symObjAddr: 0x4E20, symBinAddr: 0x100007200, symSize: 0x70 }
  - { offsetInCU: 0x119FB, offset: 0x119FB, size: 0x8, addend: 0x0, symName: __ZNSt3__15queueI5QNodeNS_5dequeIS1_NS_9allocatorIS1_EEEEEC1B7v160006Ev, symObjAddr: 0x4E90, symBinAddr: 0x100007270, symSize: 0x20 }
  - { offsetInCU: 0x11A25, offset: 0x11A25, size: 0x8, addend: 0x0, symName: __ZNSt3__15queueI5QNodeNS_5dequeIS1_NS_9allocatorIS1_EEEEE4pushB7v160006EOS1_, symObjAddr: 0x4EB0, symBinAddr: 0x100007290, symSize: 0x30 }
  - { offsetInCU: 0x11A5A, offset: 0x11A5A, size: 0x8, addend: 0x0, symName: __ZN5QNodeC1EiP6BTNode, symObjAddr: 0x4EE0, symBinAddr: 0x1000072C0, symSize: 0x30 }
  - { offsetInCU: 0x11AA0, offset: 0x11AA0, size: 0x8, addend: 0x0, symName: __ZNKSt3__15queueI5QNodeNS_5dequeIS1_NS_9allocatorIS1_EEEEE5emptyB7v160006Ev, symObjAddr: 0x4F10, symBinAddr: 0x1000072F0, symSize: 0x20 }
  - { offsetInCU: 0x11AC6, offset: 0x11AC6, size: 0x8, addend: 0x0, symName: __ZNSt3__15queueI5QNodeNS_5dequeIS1_NS_9allocatorIS1_EEEEE5frontB7v160006Ev, symObjAddr: 0x4F30, symBinAddr: 0x100007310, symSize: 0x20 }
  - { offsetInCU: 0x11AEC, offset: 0x11AEC, size: 0x8, addend: 0x0, symName: __ZNSt3__15queueI5QNodeNS_5dequeIS1_NS_9allocatorIS1_EEEEE3popB7v160006Ev, symObjAddr: 0x4F50, symBinAddr: 0x100007330, symSize: 0x20 }
  - { offsetInCU: 0x11B12, offset: 0x11B12, size: 0x8, addend: 0x0, symName: __ZNSt3__15queueI5QNodeNS_5dequeIS1_NS_9allocatorIS1_EEEEED1Ev, symObjAddr: 0x4F70, symBinAddr: 0x100007350, symSize: 0x20 }
  - { offsetInCU: 0x11B3F, offset: 0x11B3F, size: 0x8, addend: 0x0, symName: __ZNSt3__15queueI5QNodeNS_5dequeIS1_NS_9allocatorIS1_EEEEEC2B7v160006Ev, symObjAddr: 0x4F90, symBinAddr: 0x100007370, symSize: 0x20 }
  - { offsetInCU: 0x11B69, offset: 0x11B69, size: 0x8, addend: 0x0, symName: __ZNSt3__15dequeI5QNodeNS_9allocatorIS1_EEEC1B7v160006Ev, symObjAddr: 0x4FB0, symBinAddr: 0x100007390, symSize: 0x20 }
  - { offsetInCU: 0x11B93, offset: 0x11B93, size: 0x8, addend: 0x0, symName: __ZNSt3__15dequeI5QNodeNS_9allocatorIS1_EEEC2B7v160006Ev, symObjAddr: 0x4FD0, symBinAddr: 0x1000073B0, symSize: 0x50 }
  - { offsetInCU: 0x11BBD, offset: 0x11BBD, size: 0x8, addend: 0x0, symName: __ZNSt3__114__split_bufferIP5QNodeNS_9allocatorIS2_EEEC1Ev, symObjAddr: 0x5020, symBinAddr: 0x100007400, symSize: 0x20 }
  - { offsetInCU: 0x11BE9, offset: 0x11BE9, size: 0x8, addend: 0x0, symName: __ZNSt3__117__compressed_pairImNS_9allocatorI5QNodeEEEC1B7v160006IiNS_18__default_init_tagEEEOT_OT0_, symObjAddr: 0x5040, symBinAddr: 0x100007420, symSize: 0x30 }
  - { offsetInCU: 0x11C41, offset: 0x11C41, size: 0x8, addend: 0x0, symName: __ZNSt3__114__split_bufferIP5QNodeNS_9allocatorIS2_EEEC2Ev, symObjAddr: 0x5070, symBinAddr: 0x100007450, symSize: 0x60 }
  - { offsetInCU: 0x11C6D, offset: 0x11C6D, size: 0x8, addend: 0x0, symName: __ZNSt3__117__compressed_pairIPP5QNodeNS_9allocatorIS2_EEEC1B7v160006IDnNS_18__default_init_tagEEEOT_OT0_, symObjAddr: 0x50D0, symBinAddr: 0x1000074B0, symSize: 0x30 }
  - { offsetInCU: 0x11CC5, offset: 0x11CC5, size: 0x8, addend: 0x0, symName: __ZNSt3__117__compressed_pairIPP5QNodeNS_9allocatorIS2_EEEC2B7v160006IDnNS_18__default_init_tagEEEOT_OT0_, symObjAddr: 0x5100, symBinAddr: 0x1000074E0, symSize: 0x40 }
  - { offsetInCU: 0x11D1D, offset: 0x11D1D, size: 0x8, addend: 0x0, symName: __ZNSt3__122__compressed_pair_elemIPP5QNodeLi0ELb0EEC2B7v160006IDnvEEOT_, symObjAddr: 0x5140, symBinAddr: 0x100007520, symSize: 0x20 }
  - { offsetInCU: 0x11D5F, offset: 0x11D5F, size: 0x8, addend: 0x0, symName: __ZNSt3__122__compressed_pair_elemINS_9allocatorIP5QNodeEELi1ELb1EEC2B7v160006ENS_18__default_init_tagE, symObjAddr: 0x5160, symBinAddr: 0x100007540, symSize: 0x20 }
  - { offsetInCU: 0x11D93, offset: 0x11D93, size: 0x8, addend: 0x0, symName: __ZNSt3__19allocatorIP5QNodeEC2B7v160006Ev, symObjAddr: 0x5180, symBinAddr: 0x100007560, symSize: 0x20 }
  - { offsetInCU: 0x11DBD, offset: 0x11DBD, size: 0x8, addend: 0x0, symName: __ZNSt3__116__non_trivial_ifILb1ENS_9allocatorIP5QNodeEEEC2B7v160006Ev, symObjAddr: 0x51A0, symBinAddr: 0x100007580, symSize: 0x10 }
  - { offsetInCU: 0x11DE7, offset: 0x11DE7, size: 0x8, addend: 0x0, symName: __ZNSt3__117__compressed_pairImNS_9allocatorI5QNodeEEEC2B7v160006IiNS_18__default_init_tagEEEOT_OT0_, symObjAddr: 0x51B0, symBinAddr: 0x100007590, symSize: 0x40 }
  - { offsetInCU: 0x11E3F, offset: 0x11E3F, size: 0x8, addend: 0x0, symName: __ZNSt3__122__compressed_pair_elemINS_9allocatorI5QNodeEELi1ELb1EEC2B7v160006ENS_18__default_init_tagE, symObjAddr: 0x51F0, symBinAddr: 0x1000075D0, symSize: 0x20 }
  - { offsetInCU: 0x11E73, offset: 0x11E73, size: 0x8, addend: 0x0, symName: __ZNSt3__19allocatorI5QNodeEC2B7v160006Ev, symObjAddr: 0x5210, symBinAddr: 0x1000075F0, symSize: 0x20 }
  - { offsetInCU: 0x11E9D, offset: 0x11E9D, size: 0x8, addend: 0x0, symName: __ZNSt3__116__non_trivial_ifILb1ENS_9allocatorI5QNodeEEEC2B7v160006Ev, symObjAddr: 0x5230, symBinAddr: 0x100007610, symSize: 0x10 }
  - { offsetInCU: 0x11EC7, offset: 0x11EC7, size: 0x8, addend: 0x0, symName: __ZNSt3__15dequeI5QNodeNS_9allocatorIS1_EEE9push_backEOS1_, symObjAddr: 0x5240, symBinAddr: 0x100007620, symSize: 0x90 }
  - { offsetInCU: 0x11F0D, offset: 0x11F0D, size: 0x8, addend: 0x0, symName: __ZNSt3__15dequeI5QNodeNS_9allocatorIS1_EEE7__allocB7v160006Ev, symObjAddr: 0x52D0, symBinAddr: 0x1000076B0, symSize: 0x20 }
  - { offsetInCU: 0x11F33, offset: 0x11F33, size: 0x8, addend: 0x0, symName: __ZNKSt3__15dequeI5QNodeNS_9allocatorIS1_EEE12__back_spareB7v160006Ev, symObjAddr: 0x52F0, symBinAddr: 0x1000076D0, symSize: 0x50 }
  - { offsetInCU: 0x11F59, offset: 0x11F59, size: 0x8, addend: 0x0, symName: __ZNSt3__15dequeI5QNodeNS_9allocatorIS1_EEE19__add_back_capacityEv, symObjAddr: 0x5340, symBinAddr: 0x100007720, symSize: 0x380 }
  - { offsetInCU: 0x12016, offset: 0x12016, size: 0x8, addend: 0x0, symName: __ZNSt3__116allocator_traitsINS_9allocatorI5QNodeEEE9constructB7v160006IS2_JS2_EvEEvRS3_PT_DpOT0_, symObjAddr: 0x56C0, symBinAddr: 0x100007AA0, symSize: 0x30 }
  - { offsetInCU: 0x1206D, offset: 0x1206D, size: 0x8, addend: 0x0, symName: __ZNSt3__15dequeI5QNodeNS_9allocatorIS1_EEE3endB7v160006Ev, symObjAddr: 0x56F0, symBinAddr: 0x100007AD0, symSize: 0xC0 }
  - { offsetInCU: 0x120B1, offset: 0x120B1, size: 0x8, addend: 0x0, symName: __ZNKSt3__116__deque_iteratorI5QNodePS1_RS1_PS2_lLl256EEdeB7v160006Ev, symObjAddr: 0x57B0, symBinAddr: 0x100007B90, symSize: 0x20 }
  - { offsetInCU: 0x120D7, offset: 0x120D7, size: 0x8, addend: 0x0, symName: __ZNSt3__15dequeI5QNodeNS_9allocatorIS1_EEE6__sizeB7v160006Ev, symObjAddr: 0x57D0, symBinAddr: 0x100007BB0, symSize: 0x20 }
  - { offsetInCU: 0x120FD, offset: 0x120FD, size: 0x8, addend: 0x0, symName: __ZNSt3__117__compressed_pairImNS_9allocatorI5QNodeEEE6secondB7v160006Ev, symObjAddr: 0x57F0, symBinAddr: 0x100007BD0, symSize: 0x20 }
  - { offsetInCU: 0x12123, offset: 0x12123, size: 0x8, addend: 0x0, symName: __ZNSt3__122__compressed_pair_elemINS_9allocatorI5QNodeEELi1ELb1EE5__getB7v160006Ev, symObjAddr: 0x5810, symBinAddr: 0x100007BF0, symSize: 0x10 }
  - { offsetInCU: 0x12149, offset: 0x12149, size: 0x8, addend: 0x0, symName: __ZNKSt3__15dequeI5QNodeNS_9allocatorIS1_EEE10__capacityB7v160006Ev, symObjAddr: 0x5820, symBinAddr: 0x100007C00, symSize: 0x50 }
  - { offsetInCU: 0x1216F, offset: 0x1216F, size: 0x8, addend: 0x0, symName: __ZNKSt3__15dequeI5QNodeNS_9allocatorIS1_EEE4sizeB7v160006Ev, symObjAddr: 0x5870, symBinAddr: 0x100007C50, symSize: 0x20 }
  - { offsetInCU: 0x12195, offset: 0x12195, size: 0x8, addend: 0x0, symName: __ZNKSt3__114__split_bufferIP5QNodeNS_9allocatorIS2_EEE4sizeB7v160006Ev, symObjAddr: 0x5890, symBinAddr: 0x100007C70, symSize: 0x20 }
  - { offsetInCU: 0x121BB, offset: 0x121BB, size: 0x8, addend: 0x0, symName: __ZNKSt3__15dequeI5QNodeNS_9allocatorIS1_EEE6__sizeB7v160006Ev, symObjAddr: 0x58B0, symBinAddr: 0x100007C90, symSize: 0x20 }
  - { offsetInCU: 0x121E1, offset: 0x121E1, size: 0x8, addend: 0x0, symName: __ZNKSt3__117__compressed_pairImNS_9allocatorI5QNodeEEE5firstB7v160006Ev, symObjAddr: 0x58D0, symBinAddr: 0x100007CB0, symSize: 0x20 }
  - { offsetInCU: 0x12207, offset: 0x12207, size: 0x8, addend: 0x0, symName: __ZNKSt3__15dequeI5QNodeNS_9allocatorIS1_EEE13__front_spareB7v160006Ev, symObjAddr: 0x58F0, symBinAddr: 0x100007CD0, symSize: 0x20 }
  - { offsetInCU: 0x1222D, offset: 0x1222D, size: 0x8, addend: 0x0, symName: __ZNSt3__114__split_bufferIP5QNodeNS_9allocatorIS2_EEE5frontB7v160006Ev, symObjAddr: 0x5910, symBinAddr: 0x100007CF0, symSize: 0x20 }
  - { offsetInCU: 0x12253, offset: 0x12253, size: 0x8, addend: 0x0, symName: __ZNSt3__114__split_bufferIP5QNodeNS_9allocatorIS2_EEE9pop_frontB7v160006Ev, symObjAddr: 0x5930, symBinAddr: 0x100007D10, symSize: 0x30 }
  - { offsetInCU: 0x12279, offset: 0x12279, size: 0x8, addend: 0x0, symName: __ZNSt3__114__split_bufferIP5QNodeNS_9allocatorIS2_EEE9push_backB7v160006ERKS2_, symObjAddr: 0x5960, symBinAddr: 0x100007D40, symSize: 0x290 }
  - { offsetInCU: 0x122F2, offset: 0x122F2, size: 0x8, addend: 0x0, symName: __ZNKSt3__114__split_bufferIP5QNodeNS_9allocatorIS2_EEE8capacityB7v160006Ev, symObjAddr: 0x5BF0, symBinAddr: 0x100007FD0, symSize: 0x30 }
  - { offsetInCU: 0x12318, offset: 0x12318, size: 0x8, addend: 0x0, symName: __ZNKSt3__114__split_bufferIP5QNodeNS_9allocatorIS2_EEE12__back_spareB7v160006Ev, symObjAddr: 0x5C20, symBinAddr: 0x100008000, symSize: 0x40 }
  - { offsetInCU: 0x1233E, offset: 0x1233E, size: 0x8, addend: 0x0, symName: __ZNSt3__114__split_bufferIP5QNodeNS_9allocatorIS2_EEE9push_backEOS2_, symObjAddr: 0x5C60, symBinAddr: 0x100008040, symSize: 0x290 }
  - { offsetInCU: 0x123B7, offset: 0x123B7, size: 0x8, addend: 0x0, symName: __ZNSt3__116allocator_traitsINS_9allocatorI5QNodeEEE8allocateB7v160006ERS3_m, symObjAddr: 0x5EF0, symBinAddr: 0x1000082D0, symSize: 0x30 }
  - { offsetInCU: 0x123EA, offset: 0x123EA, size: 0x8, addend: 0x0, symName: __ZNSt3__114__split_bufferIP5QNodeNS_9allocatorIS2_EEE10push_frontEOS2_, symObjAddr: 0x5F20, symBinAddr: 0x100008300, symSize: 0x270 }
  - { offsetInCU: 0x12463, offset: 0x12463, size: 0x8, addend: 0x0, symName: __ZNSt3__114__split_bufferIP5QNodeNS_9allocatorIS2_EEE7__allocB7v160006Ev, symObjAddr: 0x6190, symBinAddr: 0x100008570, symSize: 0x20 }
  - { offsetInCU: 0x12489, offset: 0x12489, size: 0x8, addend: 0x0, symName: __ZNSt3__114__split_bufferIP5QNodeRNS_9allocatorIS2_EEEC1EmmS5_, symObjAddr: 0x61B0, symBinAddr: 0x100008590, symSize: 0x40 }
  - { offsetInCU: 0x124E4, offset: 0x124E4, size: 0x8, addend: 0x0, symName: __ZNSt3__122__allocator_destructorINS_9allocatorI5QNodeEEEC1B7v160006ERS3_m, symObjAddr: 0x61F0, symBinAddr: 0x1000085D0, symSize: 0x30 }
  - { offsetInCU: 0x125A7, offset: 0x125A7, size: 0x8, addend: 0x0, symName: __ZNSt3__110unique_ptrIP5QNodeNS_22__allocator_destructorINS_9allocatorIS1_EEEEEC1B7v160006ILb1EvEES2_NS_16__dependent_typeINS_27__unique_ptr_deleter_sfinaeIS6_EEXT_EE20__good_rval_ref_typeE, symObjAddr: 0x6220, symBinAddr: 0x100008600, symSize: 0x30 }
  - { offsetInCU: 0x125F8, offset: 0x125F8, size: 0x8, addend: 0x0, symName: __ZNSt3__114__split_bufferIP5QNodeRNS_9allocatorIS2_EEE9push_backEOS2_, symObjAddr: 0x6250, symBinAddr: 0x100008630, symSize: 0x290 }
  - { offsetInCU: 0x12671, offset: 0x12671, size: 0x8, addend: 0x0, symName: __ZNKSt3__110unique_ptrIP5QNodeNS_22__allocator_destructorINS_9allocatorIS1_EEEEE3getB7v160006Ev, symObjAddr: 0x64E0, symBinAddr: 0x1000088C0, symSize: 0x20 }
  - { offsetInCU: 0x12697, offset: 0x12697, size: 0x8, addend: 0x0, symName: __ZNSt3__110unique_ptrIP5QNodeNS_22__allocator_destructorINS_9allocatorIS1_EEEEE7releaseB7v160006Ev, symObjAddr: 0x6500, symBinAddr: 0x1000088E0, symSize: 0x40 }
  - { offsetInCU: 0x126CC, offset: 0x126CC, size: 0x8, addend: 0x0, symName: __ZNSt3__114__split_bufferIP5QNodeNS_9allocatorIS2_EEE3endB7v160006Ev, symObjAddr: 0x6540, symBinAddr: 0x100008920, symSize: 0x20 }
  - { offsetInCU: 0x126F2, offset: 0x126F2, size: 0x8, addend: 0x0, symName: __ZNSt3__114__split_bufferIP5QNodeNS_9allocatorIS2_EEE5beginB7v160006Ev, symObjAddr: 0x6560, symBinAddr: 0x100008940, symSize: 0x20 }
  - { offsetInCU: 0x12718, offset: 0x12718, size: 0x8, addend: 0x0, symName: __ZNSt3__114__split_bufferIP5QNodeRNS_9allocatorIS2_EEE10push_frontERKS2_, symObjAddr: 0x6580, symBinAddr: 0x100008960, symSize: 0x270 }
  - { offsetInCU: 0x12791, offset: 0x12791, size: 0x8, addend: 0x0, symName: __ZNSt3__114__split_bufferIP5QNodeNS_9allocatorIS2_EEE9__end_capB7v160006Ev, symObjAddr: 0x6830, symBinAddr: 0x100008C10, symSize: 0x20 }
  - { offsetInCU: 0x127B7, offset: 0x127B7, size: 0x8, addend: 0x0, symName: __ZNSt3__114__split_bufferIP5QNodeRNS_9allocatorIS2_EEE9__end_capB7v160006Ev, symObjAddr: 0x6850, symBinAddr: 0x100008C30, symSize: 0x20 }
  - { offsetInCU: 0x127DD, offset: 0x127DD, size: 0x8, addend: 0x0, symName: __ZNSt3__110unique_ptrIP5QNodeNS_22__allocator_destructorINS_9allocatorIS1_EEEEED1B7v160006Ev, symObjAddr: 0x6870, symBinAddr: 0x100008C50, symSize: 0x20 }
  - { offsetInCU: 0x12807, offset: 0x12807, size: 0x8, addend: 0x0, symName: __ZNSt3__114__split_bufferIP5QNodeRNS_9allocatorIS2_EEED1Ev, symObjAddr: 0x6890, symBinAddr: 0x100008C70, symSize: 0x20 }
  - { offsetInCU: 0x12833, offset: 0x12833, size: 0x8, addend: 0x0, symName: __ZNSt3__114__split_bufferIP5QNodeNS_9allocatorIS2_EEE19__destruct_at_beginB7v160006EPS2_, symObjAddr: 0x68B0, symBinAddr: 0x100008C90, symSize: 0x30 }
  - { offsetInCU: 0x12867, offset: 0x12867, size: 0x8, addend: 0x0, symName: __ZNSt3__114__split_bufferIP5QNodeNS_9allocatorIS2_EEE19__destruct_at_beginEPS2_NS_17integral_constantIbLb1EEE, symObjAddr: 0x68E0, symBinAddr: 0x100008CC0, symSize: 0x20 }
  - { offsetInCU: 0x128A7, offset: 0x128A7, size: 0x8, addend: 0x0, symName: __ZNSt3__114__split_bufferIP5QNodeRNS_9allocatorIS2_EEE18__construct_at_endINS_13move_iteratorIPS2_EEEENS_9enable_ifIXsr27__is_cpp17_forward_iteratorIT_EE5valueEvE4typeESC_SC_, symObjAddr: 0x6940, symBinAddr: 0x100008D20, symSize: 0x100 }
  - { offsetInCU: 0x12903, offset: 0x12903, size: 0x8, addend: 0x0, symName: __ZNSt3__113move_iteratorIPP5QNodeEC1B7v160006ES3_, symObjAddr: 0x6A40, symBinAddr: 0x100008E20, symSize: 0x30 }
  - { offsetInCU: 0x1293B, offset: 0x1293B, size: 0x8, addend: 0x0, symName: __ZNSt3__116allocator_traitsINS_9allocatorIP5QNodeEEE9constructB7v160006IS3_JRKS3_EvEEvRS4_PT_DpOT0_, symObjAddr: 0x6A70, symBinAddr: 0x100008E50, symSize: 0x30 }
  - { offsetInCU: 0x129AB, offset: 0x129AB, size: 0x8, addend: 0x0, symName: __ZNKSt3__114__move_trivialclB7v160006IP5QNodeS3_Li0EEENS_4pairIPT_PT0_EES6_S6_S8_, symObjAddr: 0x6C30, symBinAddr: 0x100009010, symSize: 0x40 }
  - { offsetInCU: 0x12A18, offset: 0x12A18, size: 0x8, addend: 0x0, symName: __ZNSt3__14pairIPP5QNodeS3_EC1B7v160006IRS3_S3_LPv0EEEOT_OT0_, symObjAddr: 0x6DD0, symBinAddr: 0x1000091B0, symSize: 0x30 }
  - { offsetInCU: 0x12A76, offset: 0x12A76, size: 0x8, addend: 0x0, symName: __ZNSt3__14pairIPP5QNodeS3_EC2B7v160006IRS3_S3_LPv0EEEOT_OT0_, symObjAddr: 0x6E00, symBinAddr: 0x1000091E0, symSize: 0x30 }
  - { offsetInCU: 0x12AD4, offset: 0x12AD4, size: 0x8, addend: 0x0, symName: __ZNSt3__118__unwrap_iter_implIPP5QNodeLb1EE8__unwrapB7v160006ES3_, symObjAddr: 0x6E30, symBinAddr: 0x100009210, symSize: 0x20 }
  - { offsetInCU: 0x12AF7, offset: 0x12AF7, size: 0x8, addend: 0x0, symName: __ZNSt3__14pairIPP5QNodeS3_EC1B7v160006IS3_S3_LPv0EEEOT_OT0_, symObjAddr: 0x6E50, symBinAddr: 0x100009230, symSize: 0x30 }
  - { offsetInCU: 0x12B55, offset: 0x12B55, size: 0x8, addend: 0x0, symName: __ZNSt3__14pairIPP5QNodeS3_EC2B7v160006IS3_S3_LPv0EEEOT_OT0_, symObjAddr: 0x6E80, symBinAddr: 0x100009260, symSize: 0x30 }
  - { offsetInCU: 0x12BB3, offset: 0x12BB3, size: 0x8, addend: 0x0, symName: __ZNSt3__118__unwrap_iter_implIPP5QNodeLb1EE8__rewrapB7v160006ES3_S3_, symObjAddr: 0x6EB0, symBinAddr: 0x100009290, symSize: 0x50 }
  - { offsetInCU: 0x12BEE, offset: 0x12BEE, size: 0x8, addend: 0x0, symName: __ZNSt3__114__split_bufferIP5QNodeRNS_9allocatorIS2_EEE21_ConstructTransactionC1B7v160006EPPS2_m, symObjAddr: 0x6F40, symBinAddr: 0x100009320, symSize: 0x30 }
  - { offsetInCU: 0x12C34, offset: 0x12C34, size: 0x8, addend: 0x0, symName: __ZNSt3__116allocator_traitsINS_9allocatorIP5QNodeEEE9constructB7v160006IS3_JS3_EvEEvRS4_PT_DpOT0_, symObjAddr: 0x6F70, symBinAddr: 0x100009350, symSize: 0x30 }
  - { offsetInCU: 0x12C8B, offset: 0x12C8B, size: 0x8, addend: 0x0, symName: __ZNSt3__114__split_bufferIP5QNodeRNS_9allocatorIS2_EEE7__allocB7v160006Ev, symObjAddr: 0x6FA0, symBinAddr: 0x100009380, symSize: 0x20 }
  - { offsetInCU: 0x12CB1, offset: 0x12CB1, size: 0x8, addend: 0x0, symName: __ZNKSt3__113move_iteratorIPP5QNodeEdeB7v160006Ev, symObjAddr: 0x6FC0, symBinAddr: 0x1000093A0, symSize: 0x20 }
  - { offsetInCU: 0x12CD7, offset: 0x12CD7, size: 0x8, addend: 0x0, symName: __ZNSt3__113move_iteratorIPP5QNodeEppB7v160006Ev, symObjAddr: 0x6FE0, symBinAddr: 0x1000093C0, symSize: 0x20 }
  - { offsetInCU: 0x12CFD, offset: 0x12CFD, size: 0x8, addend: 0x0, symName: __ZNSt3__114__split_bufferIP5QNodeRNS_9allocatorIS2_EEE21_ConstructTransactionD1B7v160006Ev, symObjAddr: 0x7000, symBinAddr: 0x1000093E0, symSize: 0x20 }
  - { offsetInCU: 0x12D27, offset: 0x12D27, size: 0x8, addend: 0x0, symName: __ZNKSt3__113move_iteratorIPP5QNodeE4baseB7v160006Ev, symObjAddr: 0x7090, symBinAddr: 0x100009470, symSize: 0x20 }
  - { offsetInCU: 0x12D4D, offset: 0x12D4D, size: 0x8, addend: 0x0, symName: __ZNSt3__114__split_bufferIP5QNodeRNS_9allocatorIS2_EEE21_ConstructTransactionC2B7v160006EPPS2_m, symObjAddr: 0x70B0, symBinAddr: 0x100009490, symSize: 0x40 }
  - { offsetInCU: 0x12D93, offset: 0x12D93, size: 0x8, addend: 0x0, symName: __ZNSt3__19allocatorIP5QNodeE9constructB7v160006IS2_JS2_EEEvPT_DpOT0_, symObjAddr: 0x70F0, symBinAddr: 0x1000094D0, symSize: 0x20 }
  - { offsetInCU: 0x12DE9, offset: 0x12DE9, size: 0x8, addend: 0x0, symName: __ZNSt3__117__compressed_pairIPP5QNodeRNS_9allocatorIS2_EEE6secondB7v160006Ev, symObjAddr: 0x7110, symBinAddr: 0x1000094F0, symSize: 0x20 }
  - { offsetInCU: 0x12E0F, offset: 0x12E0F, size: 0x8, addend: 0x0, symName: __ZNSt3__122__compressed_pair_elemIRNS_9allocatorIP5QNodeEELi1ELb0EE5__getB7v160006Ev, symObjAddr: 0x7130, symBinAddr: 0x100009510, symSize: 0x20 }
  - { offsetInCU: 0x12E35, offset: 0x12E35, size: 0x8, addend: 0x0, symName: __ZNSt3__114__split_bufferIP5QNodeRNS_9allocatorIS2_EEE21_ConstructTransactionD2B7v160006Ev, symObjAddr: 0x7150, symBinAddr: 0x100009530, symSize: 0x20 }
  - { offsetInCU: 0x12E5F, offset: 0x12E5F, size: 0x8, addend: 0x0, symName: __ZNSt3__113move_iteratorIPP5QNodeEC2B7v160006ES3_, symObjAddr: 0x7170, symBinAddr: 0x100009550, symSize: 0x20 }
  - { offsetInCU: 0x12E97, offset: 0x12E97, size: 0x8, addend: 0x0, symName: __ZNSt3__19allocatorIP5QNodeE9constructB7v160006IS2_JRKS2_EEEvPT_DpOT0_, symObjAddr: 0x7190, symBinAddr: 0x100009570, symSize: 0x20 }
  - { offsetInCU: 0x12EED, offset: 0x12EED, size: 0x8, addend: 0x0, symName: __ZNKSt3__114__split_bufferIP5QNodeNS_9allocatorIS2_EEE9__end_capB7v160006Ev, symObjAddr: 0x71B0, symBinAddr: 0x100009590, symSize: 0x20 }
  - { offsetInCU: 0x12F13, offset: 0x12F13, size: 0x8, addend: 0x0, symName: __ZNKSt3__117__compressed_pairIPP5QNodeNS_9allocatorIS2_EEE5firstB7v160006Ev, symObjAddr: 0x71D0, symBinAddr: 0x1000095B0, symSize: 0x20 }
  - { offsetInCU: 0x12F39, offset: 0x12F39, size: 0x8, addend: 0x0, symName: __ZNKSt3__122__compressed_pair_elemIPP5QNodeLi0ELb0EE5__getB7v160006Ev, symObjAddr: 0x71F0, symBinAddr: 0x1000095D0, symSize: 0x10 }
  - { offsetInCU: 0x12F5F, offset: 0x12F5F, size: 0x8, addend: 0x0, symName: __ZNSt3__19allocatorI5QNodeE8allocateB7v160006Em, symObjAddr: 0x7200, symBinAddr: 0x1000095E0, symSize: 0x50 }
  - { offsetInCU: 0x12F9D, offset: 0x12F9D, size: 0x8, addend: 0x0, symName: __ZNSt3__116allocator_traitsINS_9allocatorI5QNodeEEE8max_sizeB7v160006IS3_vEEmRKS3_, symObjAddr: 0x7250, symBinAddr: 0x100009630, symSize: 0x20 }
  - { offsetInCU: 0x12FCB, offset: 0x12FCB, size: 0x8, addend: 0x0, symName: __ZNKSt3__19allocatorI5QNodeE8max_sizeB7v160006Ev, symObjAddr: 0x7270, symBinAddr: 0x100009650, symSize: 0x20 }
  - { offsetInCU: 0x12FF1, offset: 0x12FF1, size: 0x8, addend: 0x0, symName: __ZNKSt3__123__move_backward_trivialclB7v160006IP5QNodeS3_Li0EEENS_4pairIPT_PT0_EES6_S6_S8_, symObjAddr: 0x7400, symBinAddr: 0x1000097E0, symSize: 0x40 }
  - { offsetInCU: 0x13059, offset: 0x13059, size: 0x8, addend: 0x0, symName: __ZNSt3__14pairIPP5QNodeS3_EC1B7v160006IRS3_S6_LPv0EEEOT_OT0_, symObjAddr: 0x74F0, symBinAddr: 0x1000098D0, symSize: 0x30 }
  - { offsetInCU: 0x130B7, offset: 0x130B7, size: 0x8, addend: 0x0, symName: __ZNSt3__14pairIPP5QNodeS3_EC2B7v160006IRS3_S6_LPv0EEEOT_OT0_, symObjAddr: 0x7520, symBinAddr: 0x100009900, symSize: 0x30 }
  - { offsetInCU: 0x13115, offset: 0x13115, size: 0x8, addend: 0x0, symName: __ZNSt3__117__compressed_pairIPP5QNodeNS_9allocatorIS2_EEE6secondB7v160006Ev, symObjAddr: 0x7550, symBinAddr: 0x100009930, symSize: 0x20 }
  - { offsetInCU: 0x1313B, offset: 0x1313B, size: 0x8, addend: 0x0, symName: __ZNSt3__122__compressed_pair_elemINS_9allocatorIP5QNodeEELi1ELb1EE5__getB7v160006Ev, symObjAddr: 0x7570, symBinAddr: 0x100009950, symSize: 0x10 }
  - { offsetInCU: 0x13161, offset: 0x13161, size: 0x8, addend: 0x0, symName: __ZNSt3__114__split_bufferIP5QNodeRNS_9allocatorIS2_EEEC2EmmS5_, symObjAddr: 0x7580, symBinAddr: 0x100009960, symSize: 0xD0 }
  - { offsetInCU: 0x131D5, offset: 0x131D5, size: 0x8, addend: 0x0, symName: __ZNSt3__117__compressed_pairIPP5QNodeRNS_9allocatorIS2_EEEC1B7v160006IDnS6_EEOT_OT0_, symObjAddr: 0x7650, symBinAddr: 0x100009A30, symSize: 0x30 }
  - { offsetInCU: 0x1322D, offset: 0x1322D, size: 0x8, addend: 0x0, symName: __ZNSt3__117__compressed_pairIPP5QNodeRNS_9allocatorIS2_EEEC2B7v160006IDnS6_EEOT_OT0_, symObjAddr: 0x76C0, symBinAddr: 0x100009AA0, symSize: 0x40 }
  - { offsetInCU: 0x13285, offset: 0x13285, size: 0x8, addend: 0x0, symName: __ZNSt3__122__compressed_pair_elemIRNS_9allocatorIP5QNodeEELi1ELb0EEC2B7v160006IS5_vEEOT_, symObjAddr: 0x7700, symBinAddr: 0x100009AE0, symSize: 0x20 }
  - { offsetInCU: 0x132C7, offset: 0x132C7, size: 0x8, addend: 0x0, symName: __ZNSt3__19allocatorIP5QNodeE8allocateB7v160006Em, symObjAddr: 0x7720, symBinAddr: 0x100009B00, symSize: 0x50 }
  - { offsetInCU: 0x13305, offset: 0x13305, size: 0x8, addend: 0x0, symName: __ZNSt3__116allocator_traitsINS_9allocatorIP5QNodeEEE8max_sizeB7v160006IS4_vEEmRKS4_, symObjAddr: 0x7770, symBinAddr: 0x100009B50, symSize: 0x20 }
  - { offsetInCU: 0x13333, offset: 0x13333, size: 0x8, addend: 0x0, symName: __ZNKSt3__19allocatorIP5QNodeE8max_sizeB7v160006Ev, symObjAddr: 0x7790, symBinAddr: 0x100009B70, symSize: 0x20 }
  - { offsetInCU: 0x13359, offset: 0x13359, size: 0x8, addend: 0x0, symName: __ZNSt3__122__allocator_destructorINS_9allocatorI5QNodeEEEC2B7v160006ERS3_m, symObjAddr: 0x77B0, symBinAddr: 0x100009B90, symSize: 0x30 }
  - { offsetInCU: 0x1339F, offset: 0x1339F, size: 0x8, addend: 0x0, symName: __ZNSt3__110unique_ptrIP5QNodeNS_22__allocator_destructorINS_9allocatorIS1_EEEEEC2B7v160006ILb1EvEES2_NS_16__dependent_typeINS_27__unique_ptr_deleter_sfinaeIS6_EEXT_EE20__good_rval_ref_typeE, symObjAddr: 0x77E0, symBinAddr: 0x100009BC0, symSize: 0x40 }
  - { offsetInCU: 0x133F0, offset: 0x133F0, size: 0x8, addend: 0x0, symName: __ZNSt3__117__compressed_pairIP5QNodeNS_22__allocator_destructorINS_9allocatorIS1_EEEEEC1B7v160006IRS2_S6_EEOT_OT0_, symObjAddr: 0x7820, symBinAddr: 0x100009C00, symSize: 0x30 }
  - { offsetInCU: 0x13448, offset: 0x13448, size: 0x8, addend: 0x0, symName: __ZNSt3__117__compressed_pairIP5QNodeNS_22__allocator_destructorINS_9allocatorIS1_EEEEEC2B7v160006IRS2_S6_EEOT_OT0_, symObjAddr: 0x7850, symBinAddr: 0x100009C30, symSize: 0x40 }
  - { offsetInCU: 0x134A0, offset: 0x134A0, size: 0x8, addend: 0x0, symName: __ZNSt3__122__compressed_pair_elemIP5QNodeLi0ELb0EEC2B7v160006IRS2_vEEOT_, symObjAddr: 0x7890, symBinAddr: 0x100009C70, symSize: 0x20 }
  - { offsetInCU: 0x134E2, offset: 0x134E2, size: 0x8, addend: 0x0, symName: __ZNSt3__122__compressed_pair_elemINS_22__allocator_destructorINS_9allocatorI5QNodeEEEELi1ELb0EEC2B7v160006IS5_vEEOT_, symObjAddr: 0x78B0, symBinAddr: 0x100009C90, symSize: 0x30 }
  - { offsetInCU: 0x13524, offset: 0x13524, size: 0x8, addend: 0x0, symName: __ZNKSt3__117__compressed_pairIP5QNodeNS_22__allocator_destructorINS_9allocatorIS1_EEEEE5firstB7v160006Ev, symObjAddr: 0x78E0, symBinAddr: 0x100009CC0, symSize: 0x20 }
  - { offsetInCU: 0x1354A, offset: 0x1354A, size: 0x8, addend: 0x0, symName: __ZNKSt3__122__compressed_pair_elemIP5QNodeLi0ELb0EE5__getB7v160006Ev, symObjAddr: 0x7900, symBinAddr: 0x100009CE0, symSize: 0x10 }
  - { offsetInCU: 0x13570, offset: 0x13570, size: 0x8, addend: 0x0, symName: __ZNSt3__117__compressed_pairIP5QNodeNS_22__allocator_destructorINS_9allocatorIS1_EEEEE5firstB7v160006Ev, symObjAddr: 0x7910, symBinAddr: 0x100009CF0, symSize: 0x20 }
  - { offsetInCU: 0x13596, offset: 0x13596, size: 0x8, addend: 0x0, symName: __ZNSt3__122__compressed_pair_elemIP5QNodeLi0ELb0EE5__getB7v160006Ev, symObjAddr: 0x7930, symBinAddr: 0x100009D10, symSize: 0x10 }
  - { offsetInCU: 0x135BC, offset: 0x135BC, size: 0x8, addend: 0x0, symName: __ZNSt3__117__compressed_pairIPP5QNodeNS_9allocatorIS2_EEE5firstB7v160006Ev, symObjAddr: 0x7940, symBinAddr: 0x100009D20, symSize: 0x20 }
  - { offsetInCU: 0x135E2, offset: 0x135E2, size: 0x8, addend: 0x0, symName: __ZNSt3__122__compressed_pair_elemIPP5QNodeLi0ELb0EE5__getB7v160006Ev, symObjAddr: 0x7960, symBinAddr: 0x100009D40, symSize: 0x10 }
  - { offsetInCU: 0x13608, offset: 0x13608, size: 0x8, addend: 0x0, symName: __ZNSt3__117__compressed_pairIPP5QNodeRNS_9allocatorIS2_EEE5firstB7v160006Ev, symObjAddr: 0x7970, symBinAddr: 0x100009D50, symSize: 0x20 }
  - { offsetInCU: 0x1362E, offset: 0x1362E, size: 0x8, addend: 0x0, symName: __ZNSt3__110unique_ptrIP5QNodeNS_22__allocator_destructorINS_9allocatorIS1_EEEEED2B7v160006Ev, symObjAddr: 0x7990, symBinAddr: 0x100009D70, symSize: 0x20 }
  - { offsetInCU: 0x13658, offset: 0x13658, size: 0x8, addend: 0x0, symName: __ZNSt3__110unique_ptrIP5QNodeNS_22__allocator_destructorINS_9allocatorIS1_EEEEE5resetB7v160006ES2_, symObjAddr: 0x79B0, symBinAddr: 0x100009D90, symSize: 0x70 }
  - { offsetInCU: 0x1369C, offset: 0x1369C, size: 0x8, addend: 0x0, symName: __ZNSt3__117__compressed_pairIP5QNodeNS_22__allocator_destructorINS_9allocatorIS1_EEEEE6secondB7v160006Ev, symObjAddr: 0x7A20, symBinAddr: 0x100009E00, symSize: 0x20 }
  - { offsetInCU: 0x136C2, offset: 0x136C2, size: 0x8, addend: 0x0, symName: __ZNSt3__122__allocator_destructorINS_9allocatorI5QNodeEEEclB7v160006EPS2_, symObjAddr: 0x7A40, symBinAddr: 0x100009E20, symSize: 0x30 }
  - { offsetInCU: 0x136F6, offset: 0x136F6, size: 0x8, addend: 0x0, symName: __ZNSt3__122__compressed_pair_elemINS_22__allocator_destructorINS_9allocatorI5QNodeEEEELi1ELb0EE5__getB7v160006Ev, symObjAddr: 0x7A70, symBinAddr: 0x100009E50, symSize: 0x10 }
  - { offsetInCU: 0x1371C, offset: 0x1371C, size: 0x8, addend: 0x0, symName: __ZNSt3__116allocator_traitsINS_9allocatorI5QNodeEEE10deallocateB7v160006ERS3_PS2_m, symObjAddr: 0x7A80, symBinAddr: 0x100009E60, symSize: 0x30 }
  - { offsetInCU: 0x1375E, offset: 0x1375E, size: 0x8, addend: 0x0, symName: __ZNSt3__19allocatorI5QNodeE10deallocateB7v160006EPS1_m, symObjAddr: 0x7AB0, symBinAddr: 0x100009E90, symSize: 0x40 }
  - { offsetInCU: 0x137A0, offset: 0x137A0, size: 0x8, addend: 0x0, symName: __ZNSt3__114__split_bufferIP5QNodeRNS_9allocatorIS2_EEED2Ev, symObjAddr: 0x7AF0, symBinAddr: 0x100009ED0, symSize: 0x70 }
  - { offsetInCU: 0x137CC, offset: 0x137CC, size: 0x8, addend: 0x0, symName: __ZNSt3__114__split_bufferIP5QNodeRNS_9allocatorIS2_EEE5clearB7v160006Ev, symObjAddr: 0x7B60, symBinAddr: 0x100009F40, symSize: 0x20 }
  - { offsetInCU: 0x137F2, offset: 0x137F2, size: 0x8, addend: 0x0, symName: __ZNSt3__116allocator_traitsINS_9allocatorIP5QNodeEEE10deallocateB7v160006ERS4_PS3_m, symObjAddr: 0x7B80, symBinAddr: 0x100009F60, symSize: 0x30 }
  - { offsetInCU: 0x13834, offset: 0x13834, size: 0x8, addend: 0x0, symName: __ZNKSt3__114__split_bufferIP5QNodeRNS_9allocatorIS2_EEE8capacityB7v160006Ev, symObjAddr: 0x7BB0, symBinAddr: 0x100009F90, symSize: 0x30 }
  - { offsetInCU: 0x1385A, offset: 0x1385A, size: 0x8, addend: 0x0, symName: __ZNSt3__114__split_bufferIP5QNodeRNS_9allocatorIS2_EEE17__destruct_at_endB7v160006EPS2_, symObjAddr: 0x7BE0, symBinAddr: 0x100009FC0, symSize: 0x30 }
  - { offsetInCU: 0x1388E, offset: 0x1388E, size: 0x8, addend: 0x0, symName: __ZNSt3__114__split_bufferIP5QNodeRNS_9allocatorIS2_EEE17__destruct_at_endB7v160006EPS2_NS_17integral_constantIbLb0EEE, symObjAddr: 0x7C10, symBinAddr: 0x100009FF0, symSize: 0x80 }
  - { offsetInCU: 0x138CE, offset: 0x138CE, size: 0x8, addend: 0x0, symName: __ZNSt3__116allocator_traitsINS_9allocatorIP5QNodeEEE7destroyB7v160006IS3_vEEvRS4_PT_, symObjAddr: 0x7C90, symBinAddr: 0x10000A070, symSize: 0x30 }
  - { offsetInCU: 0x1390B, offset: 0x1390B, size: 0x8, addend: 0x0, symName: __ZNSt3__19allocatorIP5QNodeE7destroyB7v160006EPS2_, symObjAddr: 0x7CC0, symBinAddr: 0x10000A0A0, symSize: 0x10 }
  - { offsetInCU: 0x1393F, offset: 0x1393F, size: 0x8, addend: 0x0, symName: __ZNSt3__19allocatorIP5QNodeE10deallocateB7v160006EPS2_m, symObjAddr: 0x7CD0, symBinAddr: 0x10000A0B0, symSize: 0x40 }
  - { offsetInCU: 0x13981, offset: 0x13981, size: 0x8, addend: 0x0, symName: __ZNKSt3__114__split_bufferIP5QNodeRNS_9allocatorIS2_EEE9__end_capB7v160006Ev, symObjAddr: 0x7D10, symBinAddr: 0x10000A0F0, symSize: 0x20 }
  - { offsetInCU: 0x139A7, offset: 0x139A7, size: 0x8, addend: 0x0, symName: __ZNKSt3__117__compressed_pairIPP5QNodeRNS_9allocatorIS2_EEE5firstB7v160006Ev, symObjAddr: 0x7D30, symBinAddr: 0x10000A110, symSize: 0x20 }
  - { offsetInCU: 0x139CD, offset: 0x139CD, size: 0x8, addend: 0x0, symName: __ZNSt3__19allocatorI5QNodeE9constructB7v160006IS1_JS1_EEEvPT_DpOT0_, symObjAddr: 0x7D50, symBinAddr: 0x10000A130, symSize: 0x30 }
  - { offsetInCU: 0x13A23, offset: 0x13A23, size: 0x8, addend: 0x0, symName: __ZNKSt3__114__split_bufferIP5QNodeNS_9allocatorIS2_EEE5emptyB7v160006Ev, symObjAddr: 0x7D80, symBinAddr: 0x10000A160, symSize: 0x20 }
  - { offsetInCU: 0x13A49, offset: 0x13A49, size: 0x8, addend: 0x0, symName: __ZNSt3__116__deque_iteratorI5QNodePS1_RS1_PS2_lLl256EEC1B7v160006ES4_S2_, symObjAddr: 0x7DA0, symBinAddr: 0x10000A180, symSize: 0x30 }
  - { offsetInCU: 0x13A91, offset: 0x13A91, size: 0x8, addend: 0x0, symName: __ZNSt3__116__deque_iteratorI5QNodePS1_RS1_PS2_lLl256EEC2B7v160006ES4_S2_, symObjAddr: 0x7DD0, symBinAddr: 0x10000A1B0, symSize: 0x30 }
  - { offsetInCU: 0x13AD9, offset: 0x13AD9, size: 0x8, addend: 0x0, symName: __ZNSt3__117__compressed_pairImNS_9allocatorI5QNodeEEE5firstB7v160006Ev, symObjAddr: 0x7E00, symBinAddr: 0x10000A1E0, symSize: 0x20 }
  - { offsetInCU: 0x13AFF, offset: 0x13AFF, size: 0x8, addend: 0x0, symName: __ZN5QNodeC2EiP6BTNode, symObjAddr: 0x7E20, symBinAddr: 0x10000A200, symSize: 0x30 }
  - { offsetInCU: 0x13B45, offset: 0x13B45, size: 0x8, addend: 0x0, symName: __ZNKSt3__15dequeI5QNodeNS_9allocatorIS1_EEE5emptyB7v160006Ev, symObjAddr: 0x7E50, symBinAddr: 0x10000A230, symSize: 0x30 }
  - { offsetInCU: 0x13B6B, offset: 0x13B6B, size: 0x8, addend: 0x0, symName: __ZNSt3__15dequeI5QNodeNS_9allocatorIS1_EEE5frontEv, symObjAddr: 0x7E80, symBinAddr: 0x10000A260, symSize: 0x50 }
  - { offsetInCU: 0x13B93, offset: 0x13B93, size: 0x8, addend: 0x0, symName: __ZNSt3__15dequeI5QNodeNS_9allocatorIS1_EEE9pop_frontEv, symObjAddr: 0x7ED0, symBinAddr: 0x10000A2B0, symSize: 0xA0 }
  - { offsetInCU: 0x13BCA, offset: 0x13BCA, size: 0x8, addend: 0x0, symName: __ZNSt3__116allocator_traitsINS_9allocatorI5QNodeEEE7destroyB7v160006IS2_vEEvRS3_PT_, symObjAddr: 0x7F70, symBinAddr: 0x10000A350, symSize: 0x30 }
  - { offsetInCU: 0x13C07, offset: 0x13C07, size: 0x8, addend: 0x0, symName: __ZNSt3__15dequeI5QNodeNS_9allocatorIS1_EEE26__maybe_remove_front_spareB7v160006Eb, symObjAddr: 0x7FB0, symBinAddr: 0x10000A390, symSize: 0xB0 }
  - { offsetInCU: 0x13C3C, offset: 0x13C3C, size: 0x8, addend: 0x0, symName: __ZNSt3__19allocatorI5QNodeE7destroyB7v160006EPS1_, symObjAddr: 0x8060, symBinAddr: 0x10000A440, symSize: 0x10 }
  - { offsetInCU: 0x13C70, offset: 0x13C70, size: 0x8, addend: 0x0, symName: __ZNKSt3__15dequeI5QNodeNS_9allocatorIS1_EEE20__front_spare_blocksB7v160006Ev, symObjAddr: 0x8070, symBinAddr: 0x10000A450, symSize: 0x20 }
  - { offsetInCU: 0x13C96, offset: 0x13C96, size: 0x8, addend: 0x0, symName: __ZNSt3__15queueI5QNodeNS_5dequeIS1_NS_9allocatorIS1_EEEEED2Ev, symObjAddr: 0x8090, symBinAddr: 0x10000A470, symSize: 0x20 }
  - { offsetInCU: 0x13CC3, offset: 0x13CC3, size: 0x8, addend: 0x0, symName: __ZNSt3__15dequeI5QNodeNS_9allocatorIS1_EEED1B7v160006Ev, symObjAddr: 0x80B0, symBinAddr: 0x10000A490, symSize: 0x20 }
  - { offsetInCU: 0x13CED, offset: 0x13CED, size: 0x8, addend: 0x0, symName: __ZNSt3__15dequeI5QNodeNS_9allocatorIS1_EEED2B7v160006Ev, symObjAddr: 0x80D0, symBinAddr: 0x10000A4B0, symSize: 0x80 }
  - { offsetInCU: 0x13D44, offset: 0x13D44, size: 0x8, addend: 0x0, symName: __ZNSt3__15dequeI5QNodeNS_9allocatorIS1_EEE5clearEv, symObjAddr: 0x8150, symBinAddr: 0x10000A530, symSize: 0x160 }
  - { offsetInCU: 0x13D9F, offset: 0x13D9F, size: 0x8, addend: 0x0, symName: __ZNSt3__114__split_bufferIP5QNodeNS_9allocatorIS2_EEED1Ev, symObjAddr: 0x82B0, symBinAddr: 0x10000A690, symSize: 0x20 }
  - { offsetInCU: 0x13DCB, offset: 0x13DCB, size: 0x8, addend: 0x0, symName: __ZNSt3__15dequeI5QNodeNS_9allocatorIS1_EEE5beginB7v160006Ev, symObjAddr: 0x82D0, symBinAddr: 0x10000A6B0, symSize: 0xA0 }
  - { offsetInCU: 0x13E00, offset: 0x13E00, size: 0x8, addend: 0x0, symName: __ZNSt3__116__deque_iteratorI5QNodePS1_RS1_PS2_lLl256EEppB7v160006Ev, symObjAddr: 0x83A0, symBinAddr: 0x10000A780, symSize: 0x60 }
  - { offsetInCU: 0x13E26, offset: 0x13E26, size: 0x8, addend: 0x0, symName: __ZNSt3__114__split_bufferIP5QNodeNS_9allocatorIS2_EEED2Ev, symObjAddr: 0x8430, symBinAddr: 0x10000A810, symSize: 0x60 }
  - { offsetInCU: 0x13E52, offset: 0x13E52, size: 0x8, addend: 0x0, symName: __ZNSt3__114__split_bufferIP5QNodeNS_9allocatorIS2_EEE5clearB7v160006Ev, symObjAddr: 0x8490, symBinAddr: 0x10000A870, symSize: 0x20 }
  - { offsetInCU: 0x13E78, offset: 0x13E78, size: 0x8, addend: 0x0, symName: __ZNSt3__114__split_bufferIP5QNodeNS_9allocatorIS2_EEE17__destruct_at_endB7v160006EPS2_, symObjAddr: 0x84B0, symBinAddr: 0x10000A890, symSize: 0x30 }
  - { offsetInCU: 0x13EAC, offset: 0x13EAC, size: 0x8, addend: 0x0, symName: __ZNSt3__114__split_bufferIP5QNodeNS_9allocatorIS2_EEE17__destruct_at_endB7v160006EPS2_NS_17integral_constantIbLb0EEE, symObjAddr: 0x84E0, symBinAddr: 0x10000A8C0, symSize: 0x80 }
  - { offsetInCU: 0x13F28, offset: 0x13F28, size: 0x8, addend: 0x0, symName: __ZNSt3__15queueIP6BTNodeNS_5dequeIS2_NS_9allocatorIS2_EEEEEC1B7v160006Ev, symObjAddr: 0x8560, symBinAddr: 0x10000A940, symSize: 0x20 }
  - { offsetInCU: 0x13F52, offset: 0x13F52, size: 0x8, addend: 0x0, symName: __ZNSt3__15queueIP6BTNodeNS_5dequeIS2_NS_9allocatorIS2_EEEEE4pushB7v160006ERKS2_, symObjAddr: 0x8580, symBinAddr: 0x10000A960, symSize: 0x30 }
  - { offsetInCU: 0x13F87, offset: 0x13F87, size: 0x8, addend: 0x0, symName: __ZNKSt3__15queueIP6BTNodeNS_5dequeIS2_NS_9allocatorIS2_EEEEE5emptyB7v160006Ev, symObjAddr: 0x85B0, symBinAddr: 0x10000A990, symSize: 0x20 }
  - { offsetInCU: 0x13FAD, offset: 0x13FAD, size: 0x8, addend: 0x0, symName: __ZNSt3__15queueIP6BTNodeNS_5dequeIS2_NS_9allocatorIS2_EEEEE5frontB7v160006Ev, symObjAddr: 0x85D0, symBinAddr: 0x10000A9B0, symSize: 0x20 }
  - { offsetInCU: 0x13FD3, offset: 0x13FD3, size: 0x8, addend: 0x0, symName: __ZNSt3__15queueIP6BTNodeNS_5dequeIS2_NS_9allocatorIS2_EEEEE3popB7v160006Ev, symObjAddr: 0x85F0, symBinAddr: 0x10000A9D0, symSize: 0x20 }
  - { offsetInCU: 0x13FF9, offset: 0x13FF9, size: 0x8, addend: 0x0, symName: __ZNSt3__15queueIP6BTNodeNS_5dequeIS2_NS_9allocatorIS2_EEEEED1Ev, symObjAddr: 0x8610, symBinAddr: 0x10000A9F0, symSize: 0x20 }
  - { offsetInCU: 0x14026, offset: 0x14026, size: 0x8, addend: 0x0, symName: __ZNSt3__15queueIP6BTNodeNS_5dequeIS2_NS_9allocatorIS2_EEEEEC2B7v160006Ev, symObjAddr: 0x8630, symBinAddr: 0x10000AA10, symSize: 0x20 }
  - { offsetInCU: 0x14050, offset: 0x14050, size: 0x8, addend: 0x0, symName: __ZNSt3__15dequeIP6BTNodeNS_9allocatorIS2_EEE5frontEv, symObjAddr: 0x8650, symBinAddr: 0x10000AA30, symSize: 0x50 }
  - { offsetInCU: 0x14078, offset: 0x14078, size: 0x8, addend: 0x0, symName: __ZNSt3__15dequeIP6BTNodeNS_9allocatorIS2_EEE9pop_frontEv, symObjAddr: 0x86A0, symBinAddr: 0x10000AA80, symSize: 0xA0 }
  - { offsetInCU: 0x140AF, offset: 0x140AF, size: 0x8, addend: 0x0, symName: __ZNSt3__15dequeIP6BTNodeNS_9allocatorIS2_EEE26__maybe_remove_front_spareB7v160006Eb, symObjAddr: 0x8740, symBinAddr: 0x10000AB20, symSize: 0xB0 }
  - { offsetInCU: 0x140E4, offset: 0x140E4, size: 0x8, addend: 0x0, symName: __ZNKSt3__15dequeIP6BTNodeNS_9allocatorIS2_EEE20__front_spare_blocksB7v160006Ev, symObjAddr: 0x87F0, symBinAddr: 0x10000ABD0, symSize: 0x20 }
  - { offsetInCU: 0x1410A, offset: 0x1410A, size: 0x8, addend: 0x0, symName: __ZNSt3__15queueIP6BTNodeNS_5dequeIS2_NS_9allocatorIS2_EEEEED2Ev, symObjAddr: 0x8810, symBinAddr: 0x10000ABF0, symSize: 0x20 }
  - { offsetInCU: 0x14137, offset: 0x14137, size: 0x8, addend: 0x0, symName: __ZNKSt3__15queueIP6BTNodeNS_5dequeIS2_NS_9allocatorIS2_EEEEE4sizeB7v160006Ev, symObjAddr: 0x8830, symBinAddr: 0x10000AC10, symSize: 0x20 }
  - { offsetInCU: 0x1417B, offset: 0x1417B, size: 0x8, addend: 0x0, symName: __ZNKSt3__113basic_ostreamIcNS_11char_traitsIcEEE6sentrycvbB7v160006Ev, symObjAddr: 0x8A40, symBinAddr: 0x10000AE20, symSize: 0x20 }
  - { offsetInCU: 0x141A1, offset: 0x141A1, size: 0x8, addend: 0x0, symName: __ZNSt3__119ostreambuf_iteratorIcNS_11char_traitsIcEEEC1B7v160006ERNS_13basic_ostreamIcS2_EE, symObjAddr: 0x8C80, symBinAddr: 0x10000B060, symSize: 0x30 }
  - { offsetInCU: 0x141D9, offset: 0x141D9, size: 0x8, addend: 0x0, symName: __ZNKSt3__18ios_base5flagsB7v160006Ev, symObjAddr: 0x8CB0, symBinAddr: 0x10000B090, symSize: 0x20 }
  - { offsetInCU: 0x14201, offset: 0x14201, size: 0x8, addend: 0x0, symName: __ZNKSt3__19basic_iosIcNS_11char_traitsIcEEE4fillB7v160006Ev, symObjAddr: 0x8CD0, symBinAddr: 0x10000B0B0, symSize: 0x70 }
  - { offsetInCU: 0x14229, offset: 0x14229, size: 0x8, addend: 0x0, symName: __ZNKSt3__119ostreambuf_iteratorIcNS_11char_traitsIcEEE6failedB7v160006Ev, symObjAddr: 0x8D40, symBinAddr: 0x10000B120, symSize: 0x20 }
  - { offsetInCU: 0x1424F, offset: 0x1424F, size: 0x8, addend: 0x0, symName: __ZNSt3__19basic_iosIcNS_11char_traitsIcEEE8setstateB7v160006Ej, symObjAddr: 0x8D60, symBinAddr: 0x10000B140, symSize: 0x30 }
  - { offsetInCU: 0x14284, offset: 0x14284, size: 0x8, addend: 0x0, symName: __ZNKSt3__18ios_base5widthB7v160006Ev, symObjAddr: 0x8D90, symBinAddr: 0x10000B170, symSize: 0x20 }
  - { offsetInCU: 0x142AC, offset: 0x142AC, size: 0x8, addend: 0x0, symName: __ZNSt3__115basic_streambufIcNS_11char_traitsIcEEE5sputnB7v160006EPKcl, symObjAddr: 0x8DB0, symBinAddr: 0x10000B190, symSize: 0x30 }
  - { offsetInCU: 0x142EE, offset: 0x142EE, size: 0x8, addend: 0x0, symName: __ZNSt3__112basic_stringIcNS_11char_traitsIcEENS_9allocatorIcEEEC1B7v160006Emc, symObjAddr: 0x8DE0, symBinAddr: 0x10000B1C0, symSize: 0x30 }
  - { offsetInCU: 0x14336, offset: 0x14336, size: 0x8, addend: 0x0, symName: __ZNKSt3__112basic_stringIcNS_11char_traitsIcEENS_9allocatorIcEEE4dataB7v160006Ev, symObjAddr: 0x8E10, symBinAddr: 0x10000B1F0, symSize: 0x30 }
  - { offsetInCU: 0x1435C, offset: 0x1435C, size: 0x8, addend: 0x0, symName: __ZNSt3__18ios_base5widthB7v160006El, symObjAddr: 0x8E40, symBinAddr: 0x10000B220, symSize: 0x30 }
  - { offsetInCU: 0x143A2, offset: 0x143A2, size: 0x8, addend: 0x0, symName: __ZNSt3__112basic_stringIcNS_11char_traitsIcEENS_9allocatorIcEEEC2B7v160006Emc, symObjAddr: 0x8E70, symBinAddr: 0x10000B250, symSize: 0x50 }
  - { offsetInCU: 0x143EA, offset: 0x143EA, size: 0x8, addend: 0x0, symName: __ZNSt3__117__compressed_pairINS_12basic_stringIcNS_11char_traitsIcEENS_9allocatorIcEEE5__repES5_EC1B7v160006INS_18__default_init_tagESA_EEOT_OT0_, symObjAddr: 0x8EC0, symBinAddr: 0x10000B2A0, symSize: 0x30 }
  - { offsetInCU: 0x14442, offset: 0x14442, size: 0x8, addend: 0x0, symName: __ZNSt3__117__compressed_pairINS_12basic_stringIcNS_11char_traitsIcEENS_9allocatorIcEEE5__repES5_EC2B7v160006INS_18__default_init_tagESA_EEOT_OT0_, symObjAddr: 0x8F00, symBinAddr: 0x10000B2E0, symSize: 0x30 }
  - { offsetInCU: 0x1449A, offset: 0x1449A, size: 0x8, addend: 0x0, symName: __ZNSt3__122__compressed_pair_elemINS_12basic_stringIcNS_11char_traitsIcEENS_9allocatorIcEEE5__repELi0ELb0EEC2B7v160006ENS_18__default_init_tagE, symObjAddr: 0x8F30, symBinAddr: 0x10000B310, symSize: 0x10 }
  - { offsetInCU: 0x144CE, offset: 0x144CE, size: 0x8, addend: 0x0, symName: __ZNSt3__122__compressed_pair_elemINS_9allocatorIcEELi1ELb1EEC2B7v160006ENS_18__default_init_tagE, symObjAddr: 0x8F40, symBinAddr: 0x10000B320, symSize: 0x20 }
  - { offsetInCU: 0x14502, offset: 0x14502, size: 0x8, addend: 0x0, symName: __ZNSt3__19allocatorIcEC2B7v160006Ev, symObjAddr: 0x8F60, symBinAddr: 0x10000B340, symSize: 0x20 }
  - { offsetInCU: 0x1452C, offset: 0x1452C, size: 0x8, addend: 0x0, symName: __ZNSt3__116__non_trivial_ifILb1ENS_9allocatorIcEEEC2B7v160006Ev, symObjAddr: 0x8F80, symBinAddr: 0x10000B360, symSize: 0x10 }
  - { offsetInCU: 0x14556, offset: 0x14556, size: 0x8, addend: 0x0, symName: __ZNKSt3__112basic_stringIcNS_11char_traitsIcEENS_9allocatorIcEEE13__get_pointerB7v160006Ev, symObjAddr: 0x8FA0, symBinAddr: 0x10000B380, symSize: 0x50 }
  - { offsetInCU: 0x1457C, offset: 0x1457C, size: 0x8, addend: 0x0, symName: __ZNKSt3__112basic_stringIcNS_11char_traitsIcEENS_9allocatorIcEEE18__get_long_pointerB7v160006Ev, symObjAddr: 0x8FF0, symBinAddr: 0x10000B3D0, symSize: 0x20 }
  - { offsetInCU: 0x145A2, offset: 0x145A2, size: 0x8, addend: 0x0, symName: __ZNKSt3__112basic_stringIcNS_11char_traitsIcEENS_9allocatorIcEEE19__get_short_pointerB7v160006Ev, symObjAddr: 0x9010, symBinAddr: 0x10000B3F0, symSize: 0x30 }
  - { offsetInCU: 0x145C8, offset: 0x145C8, size: 0x8, addend: 0x0, symName: __ZNSt3__114pointer_traitsIPKcE10pointer_toB7v160006ERS1_, symObjAddr: 0x9040, symBinAddr: 0x10000B420, symSize: 0x10 }
  - { offsetInCU: 0x145EB, offset: 0x145EB, size: 0x8, addend: 0x0, symName: __ZNSt3__119ostreambuf_iteratorIcNS_11char_traitsIcEEEC2B7v160006ERNS_13basic_ostreamIcS2_EE, symObjAddr: 0x9050, symBinAddr: 0x10000B430, symSize: 0x50 }
  - { offsetInCU: 0x14623, offset: 0x14623, size: 0x8, addend: 0x0, symName: __ZNKSt3__19basic_iosIcNS_11char_traitsIcEEE5rdbufB7v160006Ev, symObjAddr: 0x90A0, symBinAddr: 0x10000B480, symSize: 0x20 }
  - { offsetInCU: 0x1464B, offset: 0x1464B, size: 0x8, addend: 0x0, symName: __ZNKSt3__18ios_base5rdbufB7v160006Ev, symObjAddr: 0x90C0, symBinAddr: 0x10000B4A0, symSize: 0x20 }
  - { offsetInCU: 0x14671, offset: 0x14671, size: 0x8, addend: 0x0, symName: __ZNSt3__111char_traitsIcE11eq_int_typeEii, symObjAddr: 0x90E0, symBinAddr: 0x10000B4C0, symSize: 0x20 }
  - { offsetInCU: 0x146A2, offset: 0x146A2, size: 0x8, addend: 0x0, symName: __ZNSt3__111char_traitsIcE3eofEv, symObjAddr: 0x9100, symBinAddr: 0x10000B4E0, symSize: 0x10 }
  - { offsetInCU: 0x146B6, offset: 0x146B6, size: 0x8, addend: 0x0, symName: __ZNKSt3__19basic_iosIcNS_11char_traitsIcEEE5widenB7v160006Ec, symObjAddr: 0x9110, symBinAddr: 0x10000B4F0, symSize: 0x80 }
  - { offsetInCU: 0x14724, offset: 0x14724, size: 0x8, addend: 0x0, symName: __ZNKSt3__15ctypeIcE5widenB7v160006Ec, symObjAddr: 0x91C0, symBinAddr: 0x10000B5A0, symSize: 0x30 }
  - { offsetInCU: 0x14759, offset: 0x14759, size: 0x8, addend: 0x0, symName: __ZNSt3__18ios_base8setstateB7v160006Ej, symObjAddr: 0x91F0, symBinAddr: 0x10000B5D0, symSize: 0x30 }
  - { offsetInCU: 0x14790, offset: 0x14790, size: 0x8, addend: 0x0, symName: __ZNSt3__111char_traitsIcE6lengthEPKc, symObjAddr: 0x9220, symBinAddr: 0x10000B600, symSize: 0x30 }
  - { offsetInCU: 0x147B3, offset: 0x147B3, size: 0x8, addend: 0x0, symName: __ZNSt3__112basic_stringIcNS_11char_traitsIcEENS_9allocatorIcEEEC2B7v160006IDnEEPKc, symObjAddr: 0x9270, symBinAddr: 0x10000B650, symSize: 0x55 }
...
